
niosII_pwm_project.elf:     file format elf32-littlenios2
niosII_pwm_project.elf
architecture: nios2:r1, flags 0x00000112:
EXEC_P, HAS_SYMS, D_PAGED
start address 0x01200240

Program Header:
    LOAD off    0x00001000 vaddr 0x00800000 paddr 0x00800000 align 2**12
         filesz 0x00000000 memsz 0x00000000 flags r-x
    LOAD off    0x00001020 vaddr 0x01200020 paddr 0x01200020 align 2**12
         filesz 0x000198d0 memsz 0x00019b30 flags rwx

Sections:
Idx Name          Size      VMA       LMA       File off  Algn
  0 .entry        00000000  00800000  00800000  00001000  2**5
                  CONTENTS, ALLOC, LOAD, READONLY, CODE
  1 .exceptions   00000220  01200020  01200020  00001020  2**2
                  CONTENTS, ALLOC, LOAD, READONLY, CODE
  2 .text         000173bc  01200240  01200240  00001240  2**2
                  CONTENTS, ALLOC, LOAD, READONLY, CODE
  3 .rodata       000006f8  012175fc  012175fc  000185fc  2**2
                  CONTENTS, ALLOC, LOAD, READONLY, DATA
  4 .rwdata       00001bfc  01217cf4  01217cf4  00018cf4  2**2
                  CONTENTS, ALLOC, LOAD, DATA, SMALL_DATA
  5 .bss          00000260  012198f0  012198f0  0001a8f0  2**2
                  ALLOC, SMALL_DATA
  6 .ext_flash_ctl 00000000  00800020  00800020  0001a8f0  2**0
                  CONTENTS
  7 .ext_ram_ctl  00000000  01219b50  01219b50  0001a8f0  2**0
                  CONTENTS
  8 .instruction_tcm 00000000  02000000  02000000  0001a8f0  2**0
                  CONTENTS
  9 .comment      00000023  00000000  00000000  0001a8f0  2**0
                  CONTENTS, READONLY
 10 .debug_aranges 00001020  00000000  00000000  0001a918  2**3
                  CONTENTS, READONLY, DEBUGGING
 11 .debug_info   0002f471  00000000  00000000  0001b938  2**0
                  CONTENTS, READONLY, DEBUGGING
 12 .debug_abbrev 0000b822  00000000  00000000  0004ada9  2**0
                  CONTENTS, READONLY, DEBUGGING
 13 .debug_line   0000eaab  00000000  00000000  000565cb  2**0
                  CONTENTS, READONLY, DEBUGGING
 14 .debug_frame  00002b74  00000000  00000000  00065078  2**2
                  CONTENTS, READONLY, DEBUGGING
 15 .debug_str    000044ee  00000000  00000000  00067bec  2**0
                  CONTENTS, READONLY, DEBUGGING
 16 .debug_loc    0001e16a  00000000  00000000  0006c0da  2**0
                  CONTENTS, READONLY, DEBUGGING
 17 .debug_alt_sim_info 00000050  00000000  00000000  0008a244  2**2
                  CONTENTS, READONLY, DEBUGGING
 18 .debug_ranges 00001758  00000000  00000000  0008a298  2**3
                  CONTENTS, READONLY, DEBUGGING
 19 .thread_model 00000003  00000000  00000000  0008f795  2**0
                  CONTENTS, READONLY
 20 .cpu          00000003  00000000  00000000  0008f798  2**0
                  CONTENTS, READONLY
 21 .qsys         00000001  00000000  00000000  0008f79b  2**0
                  CONTENTS, READONLY
 22 .simulation_enabled 00000001  00000000  00000000  0008f79c  2**0
                  CONTENTS, READONLY
 23 .sysid_hash   00000004  00000000  00000000  0008f79d  2**0
                  CONTENTS, READONLY
 24 .sysid_base   00000004  00000000  00000000  0008f7a1  2**0
                  CONTENTS, READONLY
 25 .sysid_time   00000004  00000000  00000000  0008f7a5  2**0
                  CONTENTS, READONLY
 26 .stderr_dev   00000009  00000000  00000000  0008f7a9  2**0
                  CONTENTS, READONLY
 27 .stdin_dev    00000009  00000000  00000000  0008f7b2  2**0
                  CONTENTS, READONLY
 28 .stdout_dev   00000009  00000000  00000000  0008f7bb  2**0
                  CONTENTS, READONLY
 29 .sopc_system_name 00000006  00000000  00000000  0008f7c4  2**0
                  CONTENTS, READONLY
 30 .quartus_project_dir 00000039  00000000  00000000  0008f7ca  2**0
                  CONTENTS, READONLY
 31 .jdi          00003635  00000000  00000000  0008f803  2**0
                  CONTENTS, READONLY
 32 .sopcinfo     00073d59  00000000  00000000  00092e38  2**0
                  CONTENTS, READONLY
SYMBOL TABLE:
00800000 l    d  .entry	00000000 .entry
01200020 l    d  .exceptions	00000000 .exceptions
01200240 l    d  .text	00000000 .text
012175fc l    d  .rodata	00000000 .rodata
01217cf4 l    d  .rwdata	00000000 .rwdata
012198f0 l    d  .bss	00000000 .bss
00800020 l    d  .ext_flash_ctl	00000000 .ext_flash_ctl
01219b50 l    d  .ext_ram_ctl	00000000 .ext_ram_ctl
02000000 l    d  .instruction_tcm	00000000 .instruction_tcm
00000000 l    d  .comment	00000000 .comment
00000000 l    d  .debug_aranges	00000000 .debug_aranges
00000000 l    d  .debug_info	00000000 .debug_info
00000000 l    d  .debug_abbrev	00000000 .debug_abbrev
00000000 l    d  .debug_line	00000000 .debug_line
00000000 l    d  .debug_frame	00000000 .debug_frame
00000000 l    d  .debug_str	00000000 .debug_str
00000000 l    d  .debug_loc	00000000 .debug_loc
00000000 l    d  .debug_alt_sim_info	00000000 .debug_alt_sim_info
00000000 l    d  .debug_ranges	00000000 .debug_ranges
00000000 l    df *ABS*	00000000 ../niosII_pwm_project_bsp//obj/HAL/src/crt0.o
01200284 l       .text	00000000 alt_after_alt_main
00000000 l    df *ABS*	00000000 alt_irq_handler.c
00000000 l    df *ABS*	00000000 alt_instruction_exception_entry.c
00000000 l    df *ABS*	00000000 pwm.c
00000000 l    df *ABS*	00000000 fgets.c
00000000 l    df *ABS*	00000000 findfp.c
01200584 l     F .text	00000008 __fp_lock
0120058c l     F .text	00000008 __fp_unlock
012005a0 l     F .text	000001a0 __sinit.part.1
00000000 l    df *ABS*	00000000 fwalk.c
00000000 l    df *ABS*	00000000 impure.c
01217cf4 l     O .rwdata	00000424 impure_data
00000000 l    df *ABS*	00000000 mallocr.c
00000000 l    df *ABS*	00000000 memchr.c
00000000 l    df *ABS*	00000000 memcpy.c
00000000 l    df *ABS*	00000000 memset.c
00000000 l    df *ABS*	00000000 puts.c
00000000 l    df *ABS*	00000000 refill.c
0120164c l     F .text	0000001c lflush
00000000 l    df *ABS*	00000000 sbrkr.c
00000000 l    df *ABS*	00000000 sscanf.c
00000000 l    df *ABS*	00000000 stdio.c
00000000 l    df *ABS*	00000000 strlen.c
00000000 l    df *ABS*	00000000 vfscanf.c
012176d2 l     O .rodata	00000022 basefix.4082
00000000 l    df *ABS*	00000000 writer.c
00000000 l    df *ABS*	00000000 closer.c
00000000 l    df *ABS*	00000000 ctype_.c
012177f5 l     O .rodata	00000180 _ctype_b
00000000 l    df *ABS*	00000000 fclose.c
00000000 l    df *ABS*	00000000 fflush.c
00000000 l    df *ABS*	00000000 mallocr.c
00000000 l    df *ABS*	00000000 fvwrite.c
00000000 l    df *ABS*	00000000 int_errno.c
00000000 l    df *ABS*	00000000 iswspace.c
00000000 l    df *ABS*	00000000 locale.c
01218540 l     O .rwdata	00000020 lc_ctype_charset
01218520 l     O .rwdata	00000020 lc_message_charset
01218560 l     O .rwdata	00000038 lconv
00000000 l    df *ABS*	00000000 lseekr.c
00000000 l    df *ABS*	00000000 makebuf.c
00000000 l    df *ABS*	00000000 mbrtowc.c
00000000 l    df *ABS*	00000000 mbtowc_r.c
00000000 l    df *ABS*	00000000 memmove.c
00000000 l    df *ABS*	00000000 readr.c
00000000 l    df *ABS*	00000000 mallocr.c
00000000 l    df *ABS*	00000000 s_fpclassify.c
00000000 l    df *ABS*	00000000 sccl.c
00000000 l    df *ABS*	00000000 sf_nan.c
00000000 l    df *ABS*	00000000 sprintf.c
00000000 l    df *ABS*	00000000 strcmp.c
00000000 l    df *ABS*	00000000 strtod.c
012185ac l     O .rwdata	00000014 fpi.2638
01217994 l     O .rodata	00000028 tinytens
01218598 l     O .rwdata	00000014 fpinan.2674
00000000 l    df *ABS*	00000000 strtol.c
00000000 l    df *ABS*	00000000 strtoll_r.c
00000000 l    df *ABS*	00000000 strtoul.c
00000000 l    df *ABS*	00000000 strtoull_r.c
00000000 l    df *ABS*	00000000 vfscanf.c
012179bc l     O .rodata	00000022 basefix.3580
00000000 l    df *ABS*	00000000 vfprintf.c
01217a22 l     O .rodata	00000010 zeroes.4166
01217a32 l     O .rodata	00000010 blanks.4165
00000000 l    df *ABS*	00000000 ungetc.c
00000000 l    df *ABS*	00000000 wsetup.c
00000000 l    df *ABS*	00000000 dtoa.c
0120a6f4 l     F .text	00000200 quorem
00000000 l    df *ABS*	00000000 fstatr.c
00000000 l    df *ABS*	00000000 gdtoa-gethex.c
0120c074 l     F .text	00000100 rshift
00000000 l    df *ABS*	00000000 gdtoa-hexnan.c
00000000 l    df *ABS*	00000000 isattyr.c
00000000 l    df *ABS*	00000000 mprec.c
01217a70 l     O .rodata	0000000c p05.2678
00000000 l    df *ABS*	00000000 strncmp.c
00000000 l    df *ABS*	00000000 vfprintf.c
01217b94 l     O .rodata	00000010 zeroes.4110
01217ba4 l     O .rodata	00000010 blanks.4109
00000000 l    df *ABS*	00000000 mallocr.c
00000000 l    df *ABS*	00000000 libgcc2.c
00000000 l    df *ABS*	00000000 libgcc2.c
00000000 l    df *ABS*	00000000 libgcc2.c
00000000 l    df *ABS*	00000000 libgcc2.c
00000000 l    df *ABS*	00000000 lib2-divmod.c
0120fc60 l     F .text	0000006c udivmodsi4
00000000 l    df *ABS*	00000000 eqsf2.c
00000000 l    df *ABS*	00000000 gesf2.c
00000000 l    df *ABS*	00000000 lesf2.c
00000000 l    df *ABS*	00000000 adddf3.c
00000000 l    df *ABS*	00000000 divdf3.c
00000000 l    df *ABS*	00000000 eqdf2.c
00000000 l    df *ABS*	00000000 gedf2.c
00000000 l    df *ABS*	00000000 ledf2.c
00000000 l    df *ABS*	00000000 muldf3.c
00000000 l    df *ABS*	00000000 subdf3.c
00000000 l    df *ABS*	00000000 fixdfsi.c
00000000 l    df *ABS*	00000000 floatsidf.c
00000000 l    df *ABS*	00000000 floatunsidf.c
00000000 l    df *ABS*	00000000 truncdfsf2.c
00000000 l    df *ABS*	00000000 libgcc2.c
00000000 l    df *ABS*	00000000 libgcc2.c
00000000 l    df *ABS*	00000000 alt_close.c
01212708 l     F .text	00000050 alt_get_errno
00000000 l    df *ABS*	00000000 alt_dev.c
01212828 l     F .text	0000002c alt_dev_null_write
00000000 l    df *ABS*	00000000 alt_errno.c
00000000 l    df *ABS*	00000000 alt_fstat.c
01212854 l     F .text	00000050 alt_get_errno
00000000 l    df *ABS*	00000000 alt_isatty.c
01212954 l     F .text	00000050 alt_get_errno
00000000 l    df *ABS*	00000000 alt_lseek.c
01212a48 l     F .text	00000050 alt_get_errno
00000000 l    df *ABS*	00000000 alt_main.c
00000000 l    df *ABS*	00000000 alt_malloc_lock.c
00000000 l    df *ABS*	00000000 alt_read.c
01212c24 l     F .text	00000050 alt_get_errno
00000000 l    df *ABS*	00000000 alt_release_fd.c
00000000 l    df *ABS*	00000000 alt_sbrk.c
012198d8 l     O .rwdata	00000004 heap_end
00000000 l    df *ABS*	00000000 alt_write.c
01212e80 l     F .text	00000050 alt_get_errno
00000000 l    df *ABS*	00000000 alt_sys_init.c
01212fc8 l     F .text	00000038 alt_dev_reg
01218768 l     O .rwdata	000000dc ext_flash_ctl
01218844 l     O .rwdata	00001060 jtag_uart
00000000 l    df *ABS*	00000000 altera_avalon_cfi_flash.c
012130b0 l     F .text	00000038 alt_flash_device_register
00000000 l    df *ABS*	00000000 altera_avalon_cfi_flash_table.c
01213eec l     F .text	00000080 alt_read_16bit_query_entry
00000000 l    df *ABS*	00000000 altera_avalon_jtag_uart_fd.c
00000000 l    df *ABS*	00000000 altera_avalon_jtag_uart_init.c
01214fb8 l     F .text	00000204 altera_avalon_jtag_uart_irq
012151bc l     F .text	000000a8 altera_avalon_jtag_uart_timeout
00000000 l    df *ABS*	00000000 altera_avalon_jtag_uart_ioctl.c
00000000 l    df *ABS*	00000000 altera_avalon_jtag_uart_read.c
00000000 l    df *ABS*	00000000 altera_avalon_jtag_uart_write.c
00000000 l    df *ABS*	00000000 altera_avalon_timer_sc.c
012157dc l     F .text	00000074 alt_avalon_timer_sc_irq
00000000 l    df *ABS*	00000000 alt_alarm_start.c
00000000 l    df *ABS*	00000000 alt_dcache_flush.c
00000000 l    df *ABS*	00000000 alt_dev_llist_insert.c
01215a8c l     F .text	00000050 alt_get_errno
00000000 l    df *ABS*	00000000 alt_do_ctors.c
00000000 l    df *ABS*	00000000 alt_do_dtors.c
00000000 l    df *ABS*	00000000 alt_flash_dev.c
00000000 l    df *ABS*	00000000 alt_iic.c
00000000 l    df *ABS*	00000000 alt_iic_isr_register.c
00000000 l    df *ABS*	00000000 alt_io_redirect.c
01215fc0 l     F .text	000000c0 alt_open_fd
00000000 l    df *ABS*	00000000 alt_irq_vars.c
00000000 l    df *ABS*	00000000 alt_open.c
012160f8 l     F .text	00000050 alt_get_errno
01216148 l     F .text	000000cc alt_file_locked
00000000 l    df *ABS*	00000000 alt_tick.c
00000000 l    df *ABS*	00000000 altera_nios2_gen2_irq.c
00000000 l    df *ABS*	00000000 altera_avalon_cfi_flash_amd.c
012168bc l     F .text	000000cc alt_write_word_amd
012167a0 l     F .text	0000011c alt_wait_for_command_to_complete_amd
00000000 l    df *ABS*	00000000 altera_avalon_cfi_flash_intel.c
01216b90 l     F .text	00000178 alt_unlock_block_intel
01216d08 l     F .text	000000d4 alt_write_word_intel
00000000 l    df *ABS*	00000000 alt_find_dev.c
00000000 l    df *ABS*	00000000 alt_find_file.c
00000000 l    df *ABS*	00000000 alt_get_fd.c
00000000 l    df *ABS*	00000000 alt_usleep.c
00000000 l    df *ABS*	00000000 alt_busy_sleep.c
00000000 l    df *ABS*	00000000 atexit.c
00000000 l    df *ABS*	00000000 exit.c
00000000 l    df *ABS*	00000000 memcmp.c
00000000 l    df *ABS*	00000000 __atexit.c
00000000 l    df *ABS*	00000000 __call_atexit.c
00000000 l    df *ABS*	00000000 alt_exit.c
01219924 g     O .bss	00000004 alt_instruction_exception_handler
0120db10 g     F .text	00000074 _mprec_log10
0120dbfc g     F .text	0000008c __any_on
0120cca8 g     F .text	00000054 _isatty_r
01217a7c g     O .rodata	00000028 __mprec_tinytens
01212b6c g     F .text	00000078 alt_main
01201580 g     F .text	000000b8 _puts_r
012139b8 g     F .text	00000040 alt_read_query_entry_32bit
01219a50 g     O .bss	00000100 alt_irq
01204078 g     F .text	0000005c _lseek_r
01213178 g     F .text	000002a8 alt_flash_cfi_write
012110d8 g     F .text	00000084 .hidden __eqdf2
01219b50 g       *ABS*	00000000 __alt_heap_start
01201a30 g     F .text	0000005c __sseek
012008d4 g     F .text	00000010 __sinit
01203f98 g     F .text	0000007c _setlocale_r
01200740 g     F .text	00000064 __sfmoreglue
0120a5a8 g     F .text	0000001c ungetc
01212c04 g     F .text	00000020 __malloc_unlock
01204ec4 g     F .text	00001540 _strtod_r
01207224 g     F .text	000000f4 _sfread_r
012044c8 g     F .text	0000015c memmove
012008bc g     F .text	00000018 _cleanup
0120ccfc g     F .text	000000a8 _Balloc
0121115c g     F .text	000000e0 .hidden __gtdf2
01216508 g     F .text	00000020 altera_nios2_gen2_irq_init
00000000  w      *UND*	00000000 __errno
02000000 g       *ABS*	00000000 __alt_mem_instruction_tcm
01213b50 g     F .text	00000050 alt_write_flash_command_32bit_device_16bit_mode
00800000 g     F .entry	00000000 __reset
0120c01c g     F .text	00000058 _fstat_r
01213668 g     F .text	000002d4 alt_flash_program_block
012198fc g     O .bss	00000004 errno
012019ac g     F .text	00000008 __seofread
0120df10 g     F .text	00001068 ___svfiprintf_internal_r
01219910 g     O .bss	00000004 alt_argv
012218a4 g       *ABS*	00000000 _gp
012170d0 g     F .text	00000030 usleep
01200560 g     F .text	00000024 fgets
012185e8 g     O .rwdata	00000180 alt_fd_list
01216ddc g     F .text	00000090 alt_find_dev
01201324 g     F .text	00000138 memcpy
0120ca14 g     F .text	00000294 __hexnan
01200594 g     F .text	0000000c _cleanup_r
01212398 g     F .text	000000d0 .hidden __floatsidf
01216080 g     F .text	00000078 alt_io_redirect
0121123c g     F .text	000000e0 .hidden __ltdf2
01200000 g       *ABS*	00000000 __alt_mem_ext_ram_ctl
012175fc g       *ABS*	00000000 __DTOR_END__
01201638 g     F .text	00000014 puts
01217034 g     F .text	0000009c alt_exception_cause_generated_bad_addr
01204338 g     F .text	000000f0 mbrtowc
01204c20 g     F .text	00000074 __fpclassifyd
0120da6c g     F .text	000000a4 __ratio
012153b8 g     F .text	0000020c altera_avalon_jtag_uart_read
00000000  w      *UND*	00000000 malloc
0120fd7c g     F .text	00000008 .hidden __udivsi3
012129a4 g     F .text	000000a4 isatty
01203f68 g     F .text	00000030 iswspace
01217acc g     O .rodata	000000c8 __mprec_tens
01204014 g     F .text	0000000c __locale_charset
0120feb8 g     F .text	000000b8 .hidden __lesf2
0120f09c g     F .text	00000074 .hidden __fixunsdfsi
012198f8 g     O .bss	00000004 __malloc_top_pad
012071b4 g     F .text	00000070 __ssrefill_r
01206d44 g     F .text	00000024 strtoul
012198b8 g     O .rwdata	00000004 __mb_cur_max
01204044 g     F .text	0000000c _localeconv_r
01206d68 g     F .text	00000354 _strtoull_r
0120d0fc g     F .text	0000003c __i2b
01203ac4 g     F .text	000004a4 __sfvwrite_r
01201810 g     F .text	00000054 _sbrk_r
01216988 g     F .text	00000080 alt_program_intel
01204624 g     F .text	0000005c _read_r
01215a18 g     F .text	00000074 alt_dcache_flush
012198d0 g     O .rwdata	00000004 alt_max_fd
0121393c g     F .text	0000003c alt_read_query_entry_8bit
01203344 g     F .text	00000100 _fclose_r
01216a08 g     F .text	00000188 alt_erase_block_intel
01203680 g     F .text	00000030 fflush
012198f4 g     O .bss	00000004 __malloc_max_sbrked_mem
01201b2c g     F .text	00001768 __ssvfscanf_r
0120ff70 g     F .text	0000089c .hidden __adddf3
0120fd8c g     F .text	00000074 .hidden __nesf2
0120d814 g     F .text	0000011c __b2d
0120f6d0 g     F .text	00000590 .hidden __umoddi3
01212a98 g     F .text	000000d4 lseek
012198a4 g     O .rwdata	00000004 _global_impure_ptr
01204680 g     F .text	000005a0 _realloc_r
01219b50 g       *ABS*	00000000 __bss_end
01215ed0 g     F .text	000000f0 alt_iic_isr_register
01216404 g     F .text	00000104 alt_tick
01219950 g     O .bss	00000100 __hexdig
0120f110 g     F .text	000005c0 .hidden __udivdi3
01217aa4 g     O .rodata	00000028 __mprec_bigtens
0120cee0 g     F .text	00000104 __s2b
01212468 g     F .text	000000a4 .hidden __floatunsidf
0120d5bc g     F .text	00000060 __mcmp
012008f4 g     F .text	00000018 __fp_lock_all
01215e84 g     F .text	0000004c alt_ic_irq_enabled
0121636c g     F .text	00000098 alt_alarm_stop
01206784 g     F .text	00000024 strtol
01219918 g     O .bss	00000004 alt_irq_active
012000fc g     F .exceptions	000000d0 alt_irq_handler
012185c0 g     O .rwdata	00000028 alt_dev_null
01213e50 g     F .text	0000009c alt_set_flash_algorithm_func
0120cfe4 g     F .text	00000068 __hi0bits
01212310 g     F .text	00000088 .hidden __fixdfsi
012139f8 g     F .text	00000044 alt_write_flash_command_8bit_device_8bit_mode
01206404 g     F .text	0000001c strtod
012198c8 g     O .rwdata	00000008 alt_dev_list
01212ed0 g     F .text	000000f8 write
0120fe00 g     F .text	000000b8 .hidden __gtsf2
012128a4 g     F .text	000000b0 fstat
0121123c g     F .text	000000e0 .hidden __ledf2
01214cb8 g     F .text	000000d8 alt_check_primary_table
0120d334 g     F .text	00000140 __pow5mult
01219908 g     O .bss	00000004 __nlocale_changed
0120fd84 g     F .text	00000008 .hidden __umodsi3
012134ac g     F .text	00000064 alt_flash_cfi_read
01213bf0 g     F .text	00000038 alt_write_native_8bit
01219b50 g       *ABS*	00000000 end
01213a3c g     F .text	00000078 alt_write_flash_command_16bit_device_8bit_mode
01213f6c g     F .text	000005c8 alt_read_cfi_table
01214ef4 g     F .text	000000c4 altera_avalon_jtag_uart_init
012001cc g     F .exceptions	00000074 alt_instruction_exception_entry
012175fc g       *ABS*	00000000 __CTOR_LIST__
01400000 g       *ABS*	00000000 __alt_stack_pointer
01215850 g     F .text	00000088 alt_avalon_timer_sc_init
012126a4 g     F .text	00000064 .hidden __clzsi2
012155c4 g     F .text	00000218 altera_avalon_jtag_uart_write
012130e8 g     F .text	00000090 alt_flash_cfi_init
012008e4 g     F .text	00000004 __sfp_lock_acquire
0120123c g     F .text	000000e8 memchr
01204d5c g     F .text	00000058 _sprintf_r
012037d4 g     F .text	000002f0 _free_r
01204020 g     F .text	00000010 __locale_mb_cur_max
01217434 g     F .text	00000194 __call_exitprocs
012070bc g     F .text	000000f8 _sungetc_r
01219904 g     O .bss	00000004 __mlocale_changed
012198ac g     O .rwdata	00000004 __malloc_sbrk_base
01200240 g     F .text	00000048 _start
0121991c g     O .bss	00000004 _alt_tick_rate
012067a8 g     F .text	00000314 _strtoll_r
0120d474 g     F .text	00000148 __lshift
01219920 g     O .bss	00000004 _alt_nticks
01212c74 g     F .text	000000fc read
01213034 g     F .text	0000007c alt_sys_init
0120dd48 g     F .text	000001c8 __ssprint_r
01217320 g     F .text	00000114 __register_exitproc
0120dc88 g     F .text	000000c0 strncmp
01213978 g     F .text	00000040 alt_read_query_entry_16bit
0120d138 g     F .text	000001fc __multiply
01215264 g     F .text	00000068 altera_avalon_jtag_uart_close
00800000 g       *ABS*	00000000 __alt_mem_ext_flash_ctl
01219928 g     O .bss	00000028 __malloc_current_mallinfo
0120fd8c g     F .text	00000074 .hidden __eqsf2
01213c94 g     F .text	000001bc alt_set_flash_width_func
0120d930 g     F .text	0000013c __d2b
01214d90 g     F .text	00000060 altera_avalon_jtag_uart_read_fd
01206abc g     F .text	00000288 _strtoul_r
01216f80 g     F .text	000000b4 alt_get_fd
01217100 g     F .text	00000158 alt_busy_sleep
012032f0 g     F .text	00000054 _close_r
01216590 g     F .text	00000210 alt_erase_block_amd
012172a4 g     F .text	0000007c memcmp
01214e50 g     F .text	00000050 altera_avalon_jtag_uart_close_fd
01219b50 g       *ABS*	00000000 __alt_stack_base
01214ea0 g     F .text	00000054 altera_avalon_jtag_uart_ioctl_fd
01201864 g     F .text	0000007c sscanf
0120a5c4 g     F .text	00000130 __swsetup_r
01214534 g     F .text	00000784 alt_read_cfi_width
0121080c g     F .text	000008cc .hidden __divdf3
012007a4 g     F .text	00000118 __sfp
0120db84 g     F .text	00000078 __copybits
01218118 g     O .rwdata	00000408 __malloc_av_
012008f0 g     F .text	00000004 __sinit_lock_release
0121131c g     F .text	00000724 .hidden __muldf3
01201958 g     F .text	00000054 __sread
01216e6c g     F .text	00000114 alt_find_file
01215adc g     F .text	000000a4 alt_dev_llist_insert
01212be4 g     F .text	00000020 __malloc_lock
01212dd0 g     F .text	000000b0 sbrk
012083bc g     F .text	00001f90 ___svfprintf_internal_r
01203458 g     F .text	00000228 _fflush_r
0120ef78 g     F .text	000000c4 _calloc_r
012198dc g     O .rwdata	00000008 alt_flash_dev_list
01213b04 g     F .text	0000004c alt_write_flash_command_16bit_device_16bit_mode
012198f0 g       *ABS*	00000000 __bss_start
0120145c g     F .text	00000124 memset
01200288 g     F .text	00000184 main
01219914 g     O .bss	00000004 alt_envp
012198f0 g     O .bss	00000004 __malloc_max_total_mem
01214df0 g     F .text	00000060 altera_avalon_jtag_uart_write_fd
0120feb8 g     F .text	000000b8 .hidden __ltsf2
01201a8c g     F .text	00000008 __sclose
01400000 g       *ABS*	00000000 __alt_heap_limit
01203444 g     F .text	00000014 fclose
01206524 g     F .text	00000260 _strtol_r
0121250c g     F .text	00000198 .hidden __truncdfsf2
0120a8f4 g     F .text	00001728 _dtoa_r
01200a94 g     F .text	000007a8 _malloc_r
012198d4 g     O .rwdata	00000004 alt_errno
0120a34c g     F .text	000000d4 __submore
01213ba0 g     F .text	00000050 alt_write_flash_command_32bit_device_32bit_mode
01200924 g     F .text	000000b8 _fwalk
0120040c g     F .text	00000154 _fgets_r
01213510 g     F .text	00000158 alt_write_value_to_flash
0120446c g     F .text	0000005c _mbtowc_r
01213c28 g     F .text	00000038 alt_write_native_16bit
0120fccc g     F .text	00000054 .hidden __divsi3
012036b0 g     F .text	00000124 _malloc_trim_r
012175fc g       *ABS*	00000000 __CTOR_END__
01204e20 g     F .text	000000a4 strcmp
012175fc g       *ABS*	00000000 __DTOR_LIST__
012110d8 g     F .text	00000084 .hidden __nedf2
01213000 g     F .text	00000034 alt_irq_init
01212d70 g     F .text	00000060 alt_release_fd
01204db4 g     F .text	0000006c sprintf
01217bb4 g     O .rodata	00000100 .hidden __clz_tab
01219900 g     O .bss	00000004 _PathLocale
01206420 g     F .text	00000104 strtof
01217258 g     F .text	00000014 atexit
0120fe00 g     F .text	000000b8 .hidden __gesf2
01203294 g     F .text	0000005c _write_r
01204050 g     F .text	0000001c setlocale
01204d54 g     F .text	00000008 nanf
012198a8 g     O .rwdata	00000004 _impure_ptr
0121990c g     O .bss	00000004 alt_argc
0120428c g     F .text	000000ac _mbrtowc_r
01215bdc g     F .text	0000005c _do_dtors
0120403c g     F .text	00000008 __locale_cjk_lang
01201668 g     F .text	000001a8 __srefill_r
01200020 g       .exceptions	00000000 alt_irq_entry
01204428 g     F .text	00000044 __ascii_mbtowc
0120d7b4 g     F .text	00000060 __ulp
0120090c g     F .text	00000018 __fp_unlock_all
012198c0 g     O .rwdata	00000008 alt_fs_list
01213ab4 g     F .text	00000050 alt_write_flash_command_32bit_device_8bit_mode
01207318 g     F .text	000010a4 __ssvfiscanf_r
0120406c g     F .text	0000000c localeconv
01215cf0 g     F .text	00000050 alt_ic_isr_register
0120c174 g     F .text	00000084 __hexdig_init
012018e0 g     F .text	00000078 _sscanf_r
012198f0 g       *ABS*	00000000 _edata
01219b50 g       *ABS*	00000000 _end
01215c38 g     F .text	00000068 alt_flash_open_dev
012152cc g     F .text	000000ec altera_avalon_jtag_uart_ioctl
01215de0 g     F .text	000000a4 alt_ic_irq_disable
012019b4 g     F .text	0000007c __swrite
012198b0 g     O .rwdata	00000004 __malloc_trim_threshold
01204030 g     F .text	0000000c __locale_msgcharset
0121726c g     F .text	00000038 exit
012009dc g     F .text	000000b8 _fwalk_reent
0120d61c g     F .text	00000198 __mdiff
01215ca0 g     F .text	00000050 alt_flash_close_dev
0120fd20 g     F .text	0000005c .hidden __modsi3
012198b4 g     O .rwdata	00000004 __ctype_ptr__
01400000 g       *ABS*	00000000 __alt_data_end
01200020 g     F .exceptions	00000000 alt_exception
012008e8 g     F .text	00000004 __sfp_lock_release
01204c94 g     F .text	000000c0 __sccl
012176f4 g     O .rodata	00000101 _ctype_
012198bc g     O .rwdata	00000004 __mbtowc
012175c8 g     F .text	00000034 _exit
012158d8 g     F .text	00000140 alt_alarm_start
0120f03c g     F .text	00000060 .hidden __muldi3
012040d4 g     F .text	000001b8 __smakebuf_r
01213c60 g     F .text	00000034 alt_write_native_32bit
01201a94 g     F .text	00000098 strlen
01216214 g     F .text	00000158 open
0121115c g     F .text	000000e0 .hidden __gedf2
0120c1f8 g     F .text	0000081c __gethex
01213420 g     F .text	0000008c alt_flash_cfi_get_info
012198e4 g     O .rwdata	00000004 alt_priority_mask
01215d40 g     F .text	000000a0 alt_ic_irq_enable
01211a40 g     F .text	000008d0 .hidden __subdf3
0120d04c g     F .text	000000b0 __lo0bits
012198e8 g     O .rwdata	00000008 alt_alarm_list
0120a420 g     F .text	00000188 _ungetc_r
01215b80 g     F .text	0000005c _do_ctors
01212758 g     F .text	000000d0 close
01216528 g     F .text	00000068 alt_program_amd
00000000  w      *UND*	00000000 free
012008ec g     F .text	00000004 __sinit_lock_acquire
0120cdcc g     F .text	00000114 __multadd
0120cda4 g     F .text	00000028 _Bfree



Disassembly of section .exceptions:

01200020 <alt_exception>:

#else /* ALT_EXCEPTION_STACK disabled */
        /* 
         * Reserve space on normal stack for registers about to be pushed.
         */
        addi  sp, sp, -76
 1200020:	deffed04 	addi	sp,sp,-76
         * documentation for details).
         *
         * Leave a gap in the stack frame at 4(sp) for the muldiv handler to
         * store zero into.
         */
        stw   ra,  0(sp)
 1200024:	dfc00015 	stw	ra,0(sp)
        stw   r1,   8(sp)
 1200028:	d8400215 	stw	at,8(sp)
        stw   r2,  12(sp)
 120002c:	d8800315 	stw	r2,12(sp)
        stw   r3,  16(sp)
 1200030:	d8c00415 	stw	r3,16(sp)
        stw   r4,  20(sp)
 1200034:	d9000515 	stw	r4,20(sp)
        stw   r5,  24(sp)
 1200038:	d9400615 	stw	r5,24(sp)
        stw   r6,  28(sp)
 120003c:	d9800715 	stw	r6,28(sp)
        stw   r7,  32(sp)
 1200040:	d9c00815 	stw	r7,32(sp)
        rdctl r5, estatus   /* Read early to avoid usage stall */
 1200044:	000b307a 	rdctl	r5,estatus
        stw   r8,  36(sp)
 1200048:	da000915 	stw	r8,36(sp)
        stw   r9,  40(sp)
 120004c:	da400a15 	stw	r9,40(sp)
        stw   r10, 44(sp)
 1200050:	da800b15 	stw	r10,44(sp)
        stw   r11, 48(sp)
 1200054:	dac00c15 	stw	r11,48(sp)
        stw   r12, 52(sp)
 1200058:	db000d15 	stw	r12,52(sp)
        stw   r13, 56(sp)
 120005c:	db400e15 	stw	r13,56(sp)
        stw   r14, 60(sp)
 1200060:	db800f15 	stw	r14,60(sp)
        stw   r15, 64(sp)
 1200064:	dbc01015 	stw	r15,64(sp)
        /*
         * ea-4 contains the address of the instruction being executed
         * when the exception occured. For interrupt exceptions, we will
         * will be re-issue the isntruction. Store it in 72(sp)
         */
        stw   r5,  68(sp)  /* estatus */
 1200068:	d9401115 	stw	r5,68(sp)
        addi  r15, ea, -4  /* instruction that caused exception */
 120006c:	ebffff04 	addi	r15,ea,-4
        stw   r15,  72(sp)
 1200070:	dbc01215 	stw	r15,72(sp)
#else
        /*
         * Test to see if the exception was a software exception or caused 
         * by an external interrupt, and vector accordingly.
         */
        rdctl r4, ipending
 1200074:	0009313a 	rdctl	r4,ipending
        andi  r2, r5, 1
 1200078:	2880004c 	andi	r2,r5,1
        beq   r2, zero, .Lnot_irq
 120007c:	10000326 	beq	r2,zero,120008c <alt_exception+0x6c>
        beq   r4, zero, .Lnot_irq
 1200080:	20000226 	beq	r4,zero,120008c <alt_exception+0x6c>
        /*
         * Now that all necessary registers have been preserved, call 
         * alt_irq_handler() to process the interrupts.
         */

        call alt_irq_handler
 1200084:	12000fc0 	call	12000fc <alt_irq_handler>

        .section .exceptions.irqreturn, "xa"

        br    .Lexception_exit
 1200088:	00000706 	br	12000a8 <alt_exception+0x88>
         * upon completion, so we write ea (address of instruction *after*
         * the one where the exception occured) into 72(sp). The actual
         * instruction that caused the exception is written in r2, which these
         * handlers will utilize.
         */
        stw   ea,  72(sp)  /* Don't re-issue */
 120008c:	df401215 	stw	ea,72(sp)
        ldhu.n  r2, 0(r4)
        ldhu.n  r3, 2(r4)
        slli.n  r3, r3, 16
        or.n    r2, r2, r3 /* Instruction that caused exception */
#else
        ldw   r2, -4(ea)   /* Instruction that caused exception */
 1200090:	e8bfff17 	ldw	r2,-4(ea)
         * debugger is present) or go into an infinite loop since the
         * handling behavior is undefined; in that case we will not return here.
         */

        /* Load exception-causing address as first argument (r4) */
        addi   r4, ea, -4
 1200094:	e93fff04 	addi	r4,ea,-4

        /* Call the instruction-exception entry */
        call   alt_instruction_exception_entry
 1200098:	12001cc0 	call	12001cc <alt_instruction_exception_entry>
         * instruction
         *
         * Return code was 0: Skip. The instruction after the exception is
         * already stored in 72(sp).
         */
        bne   r2, r0, .Lexception_exit
 120009c:	1000021e 	bne	r2,zero,12000a8 <alt_exception+0x88>

        /*
         * Otherwise, modify 72(sp) to re-issue the instruction that caused the
         * exception.
         */
        addi  r15, ea, -4  /* instruction that caused exception */
 12000a0:	ebffff04 	addi	r15,ea,-4
        stw   r15,  72(sp)
 12000a4:	dbc01215 	stw	r15,72(sp)
        /* 
         * Restore the saved registers, so that all general purpose registers 
         * have been restored to their state at the time the interrupt occured.
         */

        ldw   r5,  68(sp)
 12000a8:	d9401117 	ldw	r5,68(sp)
        ldw   ea,  72(sp)  /* This becomes the PC once eret is executed */
 12000ac:	df401217 	ldw	ea,72(sp)
        ldw   ra,   0(sp)
 12000b0:	dfc00017 	ldw	ra,0(sp)

        wrctl estatus, r5
 12000b4:	2801707a 	wrctl	estatus,r5

        ldw   r1,   8(sp)
 12000b8:	d8400217 	ldw	at,8(sp)
        ldw   r2,  12(sp)
 12000bc:	d8800317 	ldw	r2,12(sp)
        ldw   r3,  16(sp)
 12000c0:	d8c00417 	ldw	r3,16(sp)
        ldw   r4,  20(sp)
 12000c4:	d9000517 	ldw	r4,20(sp)
        ldw   r5,  24(sp)
 12000c8:	d9400617 	ldw	r5,24(sp)
        ldw   r6,  28(sp)
 12000cc:	d9800717 	ldw	r6,28(sp)
        ldw   r7,  32(sp)
 12000d0:	d9c00817 	ldw	r7,32(sp)

#if defined(ALT_EXCEPTION_STACK) && defined(ALT_STACK_CHECK)
        ldw   et, %gprel(alt_exception_old_stack_limit)(gp)
#endif

        ldw   r8,  36(sp)
 12000d4:	da000917 	ldw	r8,36(sp)
        ldw   r9,  40(sp)
 12000d8:	da400a17 	ldw	r9,40(sp)
        ldw   r10, 44(sp)
 12000dc:	da800b17 	ldw	r10,44(sp)
        ldw   r11, 48(sp)
 12000e0:	dac00c17 	ldw	r11,48(sp)
        ldw   r12, 52(sp)
 12000e4:	db000d17 	ldw	r12,52(sp)
        ldw   r13, 56(sp)
 12000e8:	db400e17 	ldw	r13,56(sp)
        ldw   r14, 60(sp)
 12000ec:	db800f17 	ldw	r14,60(sp)
        ldw   r15, 64(sp)
 12000f0:	dbc01017 	ldw	r15,64(sp)
        stw   et, %gprel(alt_stack_limit_value)(gp)
        stw   zero, %gprel(alt_exception_old_stack_limit)(gp)
#endif /* ALT_STACK_CHECK */
        ldw   sp,  76(sp)
#else /* ALT_EXCEPTION_STACK disabled */
        addi  sp, sp, 76
 12000f4:	dec01304 	addi	sp,sp,76

        /*
         * Return to the interrupted instruction.
         */

        eret
 12000f8:	ef80083a 	eret

012000fc <alt_irq_handler>:
 * instruction is present if the macro ALT_CI_INTERRUPT_VECTOR defined.
 */

void alt_irq_handler (void) __attribute__ ((section (".exceptions")));
void alt_irq_handler (void)
{
 12000fc:	defff904 	addi	sp,sp,-28
 1200100:	dfc00615 	stw	ra,24(sp)
 1200104:	df000515 	stw	fp,20(sp)
 1200108:	df000504 	addi	fp,sp,20
  
  /*
   * Notify the operating system that we are at interrupt level.
   */ 
  
  ALT_OS_INT_ENTER();
 120010c:	0001883a 	nop
#ifndef NIOS2_EIC_PRESENT
static ALT_INLINE alt_u32 ALT_ALWAYS_INLINE alt_irq_pending (void)
{
  alt_u32 active;

  NIOS2_READ_IPENDING (active);
 1200110:	0005313a 	rdctl	r2,ipending
 1200114:	e0bffe15 	stw	r2,-8(fp)

  return active;
 1200118:	e0bffe17 	ldw	r2,-8(fp)
   * Consider the case where the high priority interupt is asserted during
   * the interrupt entry sequence for a lower priority interrupt to see why
   * this is the case.
   */

  active = alt_irq_pending ();
 120011c:	e0bffb15 	stw	r2,-20(fp)

  do
  {
    i = 0;
 1200120:	e03ffd15 	stw	zero,-12(fp)
    mask = 1;
 1200124:	00800044 	movi	r2,1
 1200128:	e0bffc15 	stw	r2,-16(fp)
     * called to clear the interrupt condition.
     */

    do
    {
      if (active & mask)
 120012c:	e0fffb17 	ldw	r3,-20(fp)
 1200130:	e0bffc17 	ldw	r2,-16(fp)
 1200134:	1884703a 	and	r2,r3,r2
 1200138:	10001426 	beq	r2,zero,120018c <alt_irq_handler+0x90>
      { 
#ifdef ALT_ENHANCED_INTERRUPT_API_PRESENT
        alt_irq[i].handler(alt_irq[i].context); 
 120013c:	008048b4 	movhi	r2,290
 1200140:	10a69404 	addi	r2,r2,-26032
 1200144:	e0fffd17 	ldw	r3,-12(fp)
 1200148:	180690fa 	slli	r3,r3,3
 120014c:	10c5883a 	add	r2,r2,r3
 1200150:	10c00017 	ldw	r3,0(r2)
 1200154:	008048b4 	movhi	r2,290
 1200158:	10a69404 	addi	r2,r2,-26032
 120015c:	e13ffd17 	ldw	r4,-12(fp)
 1200160:	200890fa 	slli	r4,r4,3
 1200164:	1105883a 	add	r2,r2,r4
 1200168:	10800104 	addi	r2,r2,4
 120016c:	10800017 	ldw	r2,0(r2)
 1200170:	1009883a 	mov	r4,r2
 1200174:	183ee83a 	callr	r3
#else
        alt_irq[i].handler(alt_irq[i].context, i); 
#endif
        break;
 1200178:	0001883a 	nop
#ifndef NIOS2_EIC_PRESENT
static ALT_INLINE alt_u32 ALT_ALWAYS_INLINE alt_irq_pending (void)
{
  alt_u32 active;

  NIOS2_READ_IPENDING (active);
 120017c:	0005313a 	rdctl	r2,ipending
 1200180:	e0bfff15 	stw	r2,-4(fp)

  return active;
 1200184:	e0bfff17 	ldw	r2,-4(fp)
 1200188:	00000706 	br	12001a8 <alt_irq_handler+0xac>
      }
      mask <<= 1;
 120018c:	e0bffc17 	ldw	r2,-16(fp)
 1200190:	1085883a 	add	r2,r2,r2
 1200194:	e0bffc15 	stw	r2,-16(fp)
      i++;
 1200198:	e0bffd17 	ldw	r2,-12(fp)
 120019c:	10800044 	addi	r2,r2,1
 12001a0:	e0bffd15 	stw	r2,-12(fp)

    } while (1);
 12001a4:	003fe106 	br	120012c <__alt_mem_instruction_tcm+0xff20012c>

    active = alt_irq_pending ();
 12001a8:	e0bffb15 	stw	r2,-20(fp)
    
  } while (active);
 12001ac:	e0bffb17 	ldw	r2,-20(fp)
 12001b0:	103fdb1e 	bne	r2,zero,1200120 <__alt_mem_instruction_tcm+0xff200120>

  /*
   * Notify the operating system that interrupt processing is complete.
   */ 

  ALT_OS_INT_EXIT();
 12001b4:	0001883a 	nop
}
 12001b8:	e037883a 	mov	sp,fp
 12001bc:	dfc00117 	ldw	ra,4(sp)
 12001c0:	df000017 	ldw	fp,0(sp)
 12001c4:	dec00204 	addi	sp,sp,8
 12001c8:	f800283a 	ret

012001cc <alt_instruction_exception_entry>:
 * that handler if it has been registered. Absent a handler, it will
 * break break or hang as discussed below.
 */
int 
alt_instruction_exception_entry (alt_u32 exception_pc)
{
 12001cc:	defffb04 	addi	sp,sp,-20
 12001d0:	dfc00415 	stw	ra,16(sp)
 12001d4:	df000315 	stw	fp,12(sp)
 12001d8:	df000304 	addi	fp,sp,12
 12001dc:	e13fff15 	stw	r4,-4(fp)
 * NIOS2_EXCEPTION_CAUSE_NOT_PRESENT. Your handling routine should
 * check the validity of the cause argument before proceeding.
 */
#ifdef NIOS2_HAS_EXTRA_EXCEPTION_INFO
  /* Get exception cause & "badaddr" */
  NIOS2_READ_EXCEPTION(cause);
 12001e0:	000531fa 	rdctl	r2,exception
 12001e4:	e0bffd15 	stw	r2,-12(fp)
  cause = ( (cause & NIOS2_EXCEPTION_REG_CAUSE_MASK) >>
 12001e8:	e0bffd17 	ldw	r2,-12(fp)
 12001ec:	10801f0c 	andi	r2,r2,124
 12001f0:	1004d0ba 	srli	r2,r2,2
 12001f4:	e0bffd15 	stw	r2,-12(fp)
              NIOS2_EXCEPTION_REG_CAUSE_OFST );

  NIOS2_READ_BADADDR(badaddr);
 12001f8:	0005333a 	rdctl	r2,badaddr
 12001fc:	e0bffe15 	stw	r2,-8(fp)
#else
  cause = NIOS2_EXCEPTION_CAUSE_NOT_PRESENT;
  badaddr = 0;
#endif /* NIOS2_HAS_EXTRA_EXCEPTION_INFO */

  if(alt_instruction_exception_handler) {
 1200200:	d0a02017 	ldw	r2,-32640(gp)
 1200204:	10000726 	beq	r2,zero,1200224 <alt_instruction_exception_entry+0x58>
     * Call handler. Its return value indicates whether the exception-causing
     * instruction should be re-issued. The code that called us,
     * alt_eceptions_entry.S, will look at this value and adjust the ea
     * register as necessary
     */
    return alt_instruction_exception_handler(cause, exception_pc, badaddr);
 1200208:	d0a02017 	ldw	r2,-32640(gp)
 120020c:	e0fffd17 	ldw	r3,-12(fp)
 1200210:	1809883a 	mov	r4,r3
 1200214:	e17fff17 	ldw	r5,-4(fp)
 1200218:	e1bffe17 	ldw	r6,-8(fp)
 120021c:	103ee83a 	callr	r2
 1200220:	00000206 	br	120022c <alt_instruction_exception_entry+0x60>
   *    (a peripheral which negates its interrupt output before its
   *    interrupt handler has been executed will cause spurious interrupts)
   */
  else {
#ifdef NIOS2_HAS_DEBUG_STUB
    NIOS2_BREAK();
 1200224:	003da03a 	break	0
      ;
#endif /* NIOS2_HAS_DEBUG_STUB */
  }

  /* We should not get here. Remove compiler warning. */
  return NIOS2_EXCEPTION_RETURN_REISSUE_INST;
 1200228:	0005883a 	mov	r2,zero
}
 120022c:	e037883a 	mov	sp,fp
 1200230:	dfc00117 	ldw	ra,4(sp)
 1200234:	df000017 	ldw	fp,0(sp)
 1200238:	dec00204 	addi	sp,sp,8
 120023c:	f800283a 	ret

Disassembly of section .text:

01200240 <_start>:

    /* Assume the data cache size is always a power of two. */
#if NIOS2_DCACHE_SIZE > 0x8000
    movhi r2, %hi(NIOS2_DCACHE_SIZE)
#else
    movui r2, NIOS2_DCACHE_SIZE
 1200240:	00840014 	movui	r2,4096
#endif

0:
    initd 0(r2)
 1200244:	10000033 	initd	0(r2)
#ifdef NIOS2_ECC_PRESENT
    addi r2, r2, -4
#else
    addi r2, r2, -NIOS2_DCACHE_LINE_SIZE
 1200248:	10bff804 	addi	r2,r2,-32
#endif
    bgt r2, zero, 0b
 120024c:	00bffd16 	blt	zero,r2,1200244 <__alt_mem_instruction_tcm+0xff200244>

    /*
     * Now that the caches are initialized, set up the stack pointer and global pointer.
     * The values provided by the linker are assumed to be correctly aligned.
     */
    movhi sp, %hi(__alt_stack_pointer)
 1200250:	06c05034 	movhi	sp,320
    ori sp, sp, %lo(__alt_stack_pointer)
 1200254:	dec00014 	ori	sp,sp,0
    movhi gp, %hi(_gp)
 1200258:	068048b4 	movhi	gp,290
    ori gp, gp, %lo(_gp)
 120025c:	d6862914 	ori	gp,gp,6308
 */
#ifndef ALT_SIM_OPTIMIZE
    /* Log that the BSS is about to be cleared. */
    ALT_LOG_PUTS(alt_log_msg_bss)

    movhi r2, %hi(__bss_start)
 1200260:	00804874 	movhi	r2,289
    ori r2, r2, %lo(__bss_start)
 1200264:	10a63c14 	ori	r2,r2,39152

    movhi r3, %hi(__bss_end)
 1200268:	00c04874 	movhi	r3,289
    ori r3, r3, %lo(__bss_end)
 120026c:	18e6d414 	ori	r3,r3,39760

    beq r2, r3, 1f
 1200270:	10c00326 	beq	r2,r3,1200280 <_start+0x40>

0:
    stw zero, (r2)
 1200274:	10000015 	stw	zero,0(r2)
    addi r2, r2, 4
 1200278:	10800104 	addi	r2,r2,4
    bltu r2, r3, 0b
 120027c:	10fffd36 	bltu	r2,r3,1200274 <__alt_mem_instruction_tcm+0xff200274>

    /* Log that alt_main is about to be called. */
    ALT_LOG_PUTS(alt_log_msg_alt_main)

    /* Call the C entry point. It should never return. */
    call alt_main
 1200280:	1212b6c0 	call	1212b6c <alt_main>

01200284 <alt_after_alt_main>:

    /* Wait in infinite loop in case alt_main does return. */
alt_after_alt_main:
    br alt_after_alt_main
 1200284:	003fff06 	br	1200284 <__alt_mem_instruction_tcm+0xff200284>

01200288 <main>:
#include <stdio.h>
#include "altera_avalon_pwm_regs.h"
#include "system.h"

int main()
{ 
 1200288:	deffe404 	addi	sp,sp,-112
 120028c:	dfc01b15 	stw	ra,108(sp)
 1200290:	df001a15 	stw	fp,104(sp)
 1200294:	df001a04 	addi	fp,sp,104
	int rx_char;
	char line[100];
	
  printf("Nios II PWM Lab\n");
 1200298:	01004874 	movhi	r4,289
 120029c:	211d7f04 	addi	r4,r4,30204
 12002a0:	12016380 	call	1201638 <puts>
  
  printf("\nPlease enter LED intensity between 1 to 4 (0 to exit)\n");
 12002a4:	01004874 	movhi	r4,289
 12002a8:	211d8304 	addi	r4,r4,30220
 12002ac:	12016380 	call	1201638 <puts>
  
  IOWR_ALTERA_AVALON_PWM_DIVIDER(MY_PWM_BASE,99999999);
 12002b0:	00c17db4 	movhi	r3,1526
 12002b4:	18f83fc4 	addi	r3,r3,-7937
 12002b8:	00805034 	movhi	r2,320
 12002bc:	10842804 	addi	r2,r2,4256
 12002c0:	10c00035 	stwio	r3,0(r2)
  IOWR_ALTERA_AVALON_PWM_DUTY(MY_PWM_BASE,99999999);
 12002c4:	00c17db4 	movhi	r3,1526
 12002c8:	18f83fc4 	addi	r3,r3,-7937
 12002cc:	00805034 	movhi	r2,320
 12002d0:	10842904 	addi	r2,r2,4260
 12002d4:	10c00035 	stwio	r3,0(r2)
  
  while (1)
	{
  
	  fgets(line, sizeof(line),stdin);
 12002d8:	008048b4 	movhi	r2,290
 12002dc:	10a62a04 	addi	r2,r2,-26456
 12002e0:	10800017 	ldw	r2,0(r2)
 12002e4:	10800117 	ldw	r2,4(r2)
 12002e8:	e0ffe704 	addi	r3,fp,-100
 12002ec:	1809883a 	mov	r4,r3
 12002f0:	01401904 	movi	r5,100
 12002f4:	100d883a 	mov	r6,r2
 12002f8:	12005600 	call	1200560 <fgets>
	  sscanf(line,"%d",&rx_char);
 12002fc:	e0bfe704 	addi	r2,fp,-100
 1200300:	1009883a 	mov	r4,r2
 1200304:	01404874 	movhi	r5,289
 1200308:	295d9104 	addi	r5,r5,30276
 120030c:	e1bfe604 	addi	r6,fp,-104
 1200310:	12018640 	call	1201864 <sscanf>
	
		switch (rx_char)
 1200314:	e0bfe617 	ldw	r2,-104(fp)
 1200318:	10c00168 	cmpgeui	r3,r2,5
 120031c:	1800311e 	bne	r3,zero,12003e4 <main+0x15c>
 1200320:	100690ba 	slli	r3,r2,2
 1200324:	00804834 	movhi	r2,288
 1200328:	1080ce04 	addi	r2,r2,824
 120032c:	1885883a 	add	r2,r3,r2
 1200330:	10800017 	ldw	r2,0(r2)
 1200334:	1000683a 	jmp	r2
 1200338:	012003dc 	xori	r4,zero,32783
 120033c:	012003b8 	rdprs	r4,zero,-32754
 1200340:	01200394 	movui	r4,32782
 1200344:	01200370 	cmpltui	r4,zero,32781
 1200348:	0120034c 	andi	r4,zero,32781
		{
			case 4:
				IOWR_ALTERA_AVALON_PWM_DUTY(MY_PWM_BASE,99999999); //255
 120034c:	00c17db4 	movhi	r3,1526
 1200350:	18f83fc4 	addi	r3,r3,-7937
 1200354:	00805034 	movhi	r2,320
 1200358:	10842904 	addi	r2,r2,4260
 120035c:	10c00035 	stwio	r3,0(r2)
				printf("Level 4 intensity\n");
 1200360:	01004874 	movhi	r4,289
 1200364:	211d9204 	addi	r4,r4,30280
 1200368:	12016380 	call	1201638 <puts>
				break;
 120036c:	00002106 	br	12003f4 <main+0x16c>
	
			case 3:
				IOWR_ALTERA_AVALON_PWM_DUTY(MY_PWM_BASE,74999999); //128
 1200370:	00c11e34 	movhi	r3,1144
 1200374:	18da2fc4 	addi	r3,r3,26815
 1200378:	00805034 	movhi	r2,320
 120037c:	10842904 	addi	r2,r2,4260
 1200380:	10c00035 	stwio	r3,0(r2)
				printf("Level 3 intensity\n");
 1200384:	01004874 	movhi	r4,289
 1200388:	211d9704 	addi	r4,r4,30300
 120038c:	12016380 	call	1201638 <puts>
				break;
 1200390:	00001806 	br	12003f4 <main+0x16c>
	
			case 2:
				IOWR_ALTERA_AVALON_PWM_DUTY(MY_PWM_BASE,49999999); //48
 1200394:	00c0bef4 	movhi	r3,763
 1200398:	18fc1fc4 	addi	r3,r3,-3969
 120039c:	00805034 	movhi	r2,320
 12003a0:	10842904 	addi	r2,r2,4260
 12003a4:	10c00035 	stwio	r3,0(r2)
				printf("Level 2 intensity\n");
 12003a8:	01004874 	movhi	r4,289
 12003ac:	211d9c04 	addi	r4,r4,30320
 12003b0:	12016380 	call	1201638 <puts>
				break;
 12003b4:	00000f06 	br	12003f4 <main+0x16c>
	
			case 1:
				IOWR_ALTERA_AVALON_PWM_DUTY(MY_PWM_BASE,24999999);//16
 12003b8:	00c05f74 	movhi	r3,381
 12003bc:	18de0fc4 	addi	r3,r3,30783
 12003c0:	00805034 	movhi	r2,320
 12003c4:	10842904 	addi	r2,r2,4260
 12003c8:	10c00035 	stwio	r3,0(r2)
				printf("Level 1 intensity\n");
 12003cc:	01004874 	movhi	r4,289
 12003d0:	211da104 	addi	r4,r4,30340
 12003d4:	12016380 	call	1201638 <puts>
				break;
 12003d8:	00000606 	br	12003f4 <main+0x16c>
	
			case 0:
			  return 0;
 12003dc:	0005883a 	mov	r2,zero
 12003e0:	00000506 	br	12003f8 <main+0x170>
				break;
	
			default:
			  printf("Please enter an integer value from 0 to 4\n");
 12003e4:	01004874 	movhi	r4,289
 12003e8:	211da604 	addi	r4,r4,30360
 12003ec:	12016380 	call	1201638 <puts>
				break;
 12003f0:	0001883a 	nop
		}
	}
 12003f4:	003fb806 	br	12002d8 <__alt_mem_instruction_tcm+0xff2002d8>
  return 0;
}
 12003f8:	e037883a 	mov	sp,fp
 12003fc:	dfc00117 	ldw	ra,4(sp)
 1200400:	df000017 	ldw	fp,0(sp)
 1200404:	dec00204 	addi	sp,sp,8
 1200408:	f800283a 	ret

0120040c <_fgets_r>:
 120040c:	00c00044 	movi	r3,1
 1200410:	1980510e 	bge	r3,r6,1200558 <_fgets_r+0x14c>
 1200414:	defff804 	addi	sp,sp,-32
 1200418:	dd000415 	stw	r20,16(sp)
 120041c:	dcc00315 	stw	r19,12(sp)
 1200420:	dc800215 	stw	r18,8(sp)
 1200424:	dc400115 	stw	r17,4(sp)
 1200428:	dfc00715 	stw	ra,28(sp)
 120042c:	dd800615 	stw	r22,24(sp)
 1200430:	dd400515 	stw	r21,20(sp)
 1200434:	dc000015 	stw	r16,0(sp)
 1200438:	2027883a 	mov	r19,r4
 120043c:	3823883a 	mov	r17,r7
 1200440:	2829883a 	mov	r20,r5
 1200444:	3025883a 	mov	r18,r6
 1200448:	20000226 	beq	r4,zero,1200454 <_fgets_r+0x48>
 120044c:	20800e17 	ldw	r2,56(r4)
 1200450:	10003c26 	beq	r2,zero,1200544 <_fgets_r+0x138>
 1200454:	12008e40 	call	12008e4 <__sfp_lock_acquire>
 1200458:	94bfffc4 	addi	r18,r18,-1
 120045c:	a02b883a 	mov	r21,r20
 1200460:	00001506 	br	12004b8 <_fgets_r+0xac>
 1200464:	01400284 	movi	r5,10
 1200468:	8d800017 	ldw	r22,0(r17)
 120046c:	9400012e 	bgeu	r18,r16,1200474 <_fgets_r+0x68>
 1200470:	9021883a 	mov	r16,r18
 1200474:	b009883a 	mov	r4,r22
 1200478:	800d883a 	mov	r6,r16
 120047c:	120123c0 	call	120123c <memchr>
 1200480:	a809883a 	mov	r4,r21
 1200484:	b00b883a 	mov	r5,r22
 1200488:	800d883a 	mov	r6,r16
 120048c:	9425c83a 	sub	r18,r18,r16
 1200490:	10001f1e 	bne	r2,zero,1200510 <_fgets_r+0x104>
 1200494:	88800117 	ldw	r2,4(r17)
 1200498:	88c00017 	ldw	r3,0(r17)
 120049c:	ac2b883a 	add	r21,r21,r16
 12004a0:	1405c83a 	sub	r2,r2,r16
 12004a4:	1c21883a 	add	r16,r3,r16
 12004a8:	88800115 	stw	r2,4(r17)
 12004ac:	8c000015 	stw	r16,0(r17)
 12004b0:	12013240 	call	1201324 <memcpy>
 12004b4:	90000926 	beq	r18,zero,12004dc <_fgets_r+0xd0>
 12004b8:	8c000117 	ldw	r16,4(r17)
 12004bc:	803fe91e 	bne	r16,zero,1200464 <__alt_mem_instruction_tcm+0xff200464>
 12004c0:	9809883a 	mov	r4,r19
 12004c4:	880b883a 	mov	r5,r17
 12004c8:	12016680 	call	1201668 <__srefill_r>
 12004cc:	1000021e 	bne	r2,zero,12004d8 <_fgets_r+0xcc>
 12004d0:	8c000117 	ldw	r16,4(r17)
 12004d4:	003fe306 	br	1200464 <__alt_mem_instruction_tcm+0xff200464>
 12004d8:	a5401c26 	beq	r20,r21,120054c <_fgets_r+0x140>
 12004dc:	a8000005 	stb	zero,0(r21)
 12004e0:	12008e80 	call	12008e8 <__sfp_lock_release>
 12004e4:	a005883a 	mov	r2,r20
 12004e8:	dfc00717 	ldw	ra,28(sp)
 12004ec:	dd800617 	ldw	r22,24(sp)
 12004f0:	dd400517 	ldw	r21,20(sp)
 12004f4:	dd000417 	ldw	r20,16(sp)
 12004f8:	dcc00317 	ldw	r19,12(sp)
 12004fc:	dc800217 	ldw	r18,8(sp)
 1200500:	dc400117 	ldw	r17,4(sp)
 1200504:	dc000017 	ldw	r16,0(sp)
 1200508:	dec00804 	addi	sp,sp,32
 120050c:	f800283a 	ret
 1200510:	88c00117 	ldw	r3,4(r17)
 1200514:	10800044 	addi	r2,r2,1
 1200518:	15a1c83a 	sub	r16,r2,r22
 120051c:	1c07c83a 	sub	r3,r3,r16
 1200520:	800d883a 	mov	r6,r16
 1200524:	88c00115 	stw	r3,4(r17)
 1200528:	88800015 	stw	r2,0(r17)
 120052c:	ac2b883a 	add	r21,r21,r16
 1200530:	12013240 	call	1201324 <memcpy>
 1200534:	a8000005 	stb	zero,0(r21)
 1200538:	12008e80 	call	12008e8 <__sfp_lock_release>
 120053c:	a005883a 	mov	r2,r20
 1200540:	003fe906 	br	12004e8 <__alt_mem_instruction_tcm+0xff2004e8>
 1200544:	12008d40 	call	12008d4 <__sinit>
 1200548:	003fc206 	br	1200454 <__alt_mem_instruction_tcm+0xff200454>
 120054c:	12008e80 	call	12008e8 <__sfp_lock_release>
 1200550:	0005883a 	mov	r2,zero
 1200554:	003fe406 	br	12004e8 <__alt_mem_instruction_tcm+0xff2004e8>
 1200558:	0005883a 	mov	r2,zero
 120055c:	f800283a 	ret

01200560 <fgets>:
 1200560:	2007883a 	mov	r3,r4
 1200564:	010048b4 	movhi	r4,290
 1200568:	21262a04 	addi	r4,r4,-26456
 120056c:	21000017 	ldw	r4,0(r4)
 1200570:	2805883a 	mov	r2,r5
 1200574:	300f883a 	mov	r7,r6
 1200578:	180b883a 	mov	r5,r3
 120057c:	100d883a 	mov	r6,r2
 1200580:	120040c1 	jmpi	120040c <_fgets_r>

01200584 <__fp_lock>:
 1200584:	0005883a 	mov	r2,zero
 1200588:	f800283a 	ret

0120058c <__fp_unlock>:
 120058c:	0005883a 	mov	r2,zero
 1200590:	f800283a 	ret

01200594 <_cleanup_r>:
 1200594:	01404834 	movhi	r5,288
 1200598:	294d1104 	addi	r5,r5,13380
 120059c:	12009241 	jmpi	1200924 <_fwalk>

012005a0 <__sinit.part.1>:
 12005a0:	defff604 	addi	sp,sp,-40
 12005a4:	00c04834 	movhi	r3,288
 12005a8:	dfc00915 	stw	ra,36(sp)
 12005ac:	df000815 	stw	fp,32(sp)
 12005b0:	ddc00715 	stw	r23,28(sp)
 12005b4:	dd800615 	stw	r22,24(sp)
 12005b8:	dd400515 	stw	r21,20(sp)
 12005bc:	dd000415 	stw	r20,16(sp)
 12005c0:	dcc00315 	stw	r19,12(sp)
 12005c4:	dc800215 	stw	r18,8(sp)
 12005c8:	dc400115 	stw	r17,4(sp)
 12005cc:	dc000015 	stw	r16,0(sp)
 12005d0:	18c16504 	addi	r3,r3,1428
 12005d4:	24000117 	ldw	r16,4(r4)
 12005d8:	20c00f15 	stw	r3,60(r4)
 12005dc:	07000044 	movi	fp,1
 12005e0:	00c000c4 	movi	r3,3
 12005e4:	2080bb04 	addi	r2,r4,748
 12005e8:	20c0b915 	stw	r3,740(r4)
 12005ec:	27000e15 	stw	fp,56(r4)
 12005f0:	2080ba15 	stw	r2,744(r4)
 12005f4:	2000b815 	stw	zero,736(r4)
 12005f8:	05c00204 	movi	r23,8
 12005fc:	00800104 	movi	r2,4
 1200600:	2025883a 	mov	r18,r4
 1200604:	b80d883a 	mov	r6,r23
 1200608:	81001704 	addi	r4,r16,92
 120060c:	000b883a 	mov	r5,zero
 1200610:	80000015 	stw	zero,0(r16)
 1200614:	80000115 	stw	zero,4(r16)
 1200618:	80000215 	stw	zero,8(r16)
 120061c:	8080030d 	sth	r2,12(r16)
 1200620:	80001915 	stw	zero,100(r16)
 1200624:	8000038d 	sth	zero,14(r16)
 1200628:	80000415 	stw	zero,16(r16)
 120062c:	80000515 	stw	zero,20(r16)
 1200630:	80000615 	stw	zero,24(r16)
 1200634:	120145c0 	call	120145c <memset>
 1200638:	05804834 	movhi	r22,288
 120063c:	94400217 	ldw	r17,8(r18)
 1200640:	05404834 	movhi	r21,288
 1200644:	05004834 	movhi	r20,288
 1200648:	04c04834 	movhi	r19,288
 120064c:	b5865604 	addi	r22,r22,6488
 1200650:	ad466d04 	addi	r21,r21,6580
 1200654:	a5068c04 	addi	r20,r20,6704
 1200658:	9cc6a304 	addi	r19,r19,6796
 120065c:	85800815 	stw	r22,32(r16)
 1200660:	85400915 	stw	r21,36(r16)
 1200664:	85000a15 	stw	r20,40(r16)
 1200668:	84c00b15 	stw	r19,44(r16)
 120066c:	84000715 	stw	r16,28(r16)
 1200670:	00800284 	movi	r2,10
 1200674:	89001704 	addi	r4,r17,92
 1200678:	b80d883a 	mov	r6,r23
 120067c:	000b883a 	mov	r5,zero
 1200680:	88000015 	stw	zero,0(r17)
 1200684:	88000115 	stw	zero,4(r17)
 1200688:	88000215 	stw	zero,8(r17)
 120068c:	8880030d 	sth	r2,12(r17)
 1200690:	88001915 	stw	zero,100(r17)
 1200694:	8f00038d 	sth	fp,14(r17)
 1200698:	88000415 	stw	zero,16(r17)
 120069c:	88000515 	stw	zero,20(r17)
 12006a0:	88000615 	stw	zero,24(r17)
 12006a4:	120145c0 	call	120145c <memset>
 12006a8:	94000317 	ldw	r16,12(r18)
 12006ac:	00800484 	movi	r2,18
 12006b0:	8c400715 	stw	r17,28(r17)
 12006b4:	8d800815 	stw	r22,32(r17)
 12006b8:	8d400915 	stw	r21,36(r17)
 12006bc:	8d000a15 	stw	r20,40(r17)
 12006c0:	8cc00b15 	stw	r19,44(r17)
 12006c4:	8080030d 	sth	r2,12(r16)
 12006c8:	00800084 	movi	r2,2
 12006cc:	80000015 	stw	zero,0(r16)
 12006d0:	80000115 	stw	zero,4(r16)
 12006d4:	80000215 	stw	zero,8(r16)
 12006d8:	80001915 	stw	zero,100(r16)
 12006dc:	8080038d 	sth	r2,14(r16)
 12006e0:	80000415 	stw	zero,16(r16)
 12006e4:	80000515 	stw	zero,20(r16)
 12006e8:	80000615 	stw	zero,24(r16)
 12006ec:	81001704 	addi	r4,r16,92
 12006f0:	000b883a 	mov	r5,zero
 12006f4:	b80d883a 	mov	r6,r23
 12006f8:	120145c0 	call	120145c <memset>
 12006fc:	84000715 	stw	r16,28(r16)
 1200700:	85800815 	stw	r22,32(r16)
 1200704:	85400915 	stw	r21,36(r16)
 1200708:	85000a15 	stw	r20,40(r16)
 120070c:	84c00b15 	stw	r19,44(r16)
 1200710:	dfc00917 	ldw	ra,36(sp)
 1200714:	df000817 	ldw	fp,32(sp)
 1200718:	ddc00717 	ldw	r23,28(sp)
 120071c:	dd800617 	ldw	r22,24(sp)
 1200720:	dd400517 	ldw	r21,20(sp)
 1200724:	dd000417 	ldw	r20,16(sp)
 1200728:	dcc00317 	ldw	r19,12(sp)
 120072c:	dc800217 	ldw	r18,8(sp)
 1200730:	dc400117 	ldw	r17,4(sp)
 1200734:	dc000017 	ldw	r16,0(sp)
 1200738:	dec00a04 	addi	sp,sp,40
 120073c:	f800283a 	ret

01200740 <__sfmoreglue>:
 1200740:	defffc04 	addi	sp,sp,-16
 1200744:	dc400115 	stw	r17,4(sp)
 1200748:	2c401a24 	muli	r17,r5,104
 120074c:	dc800215 	stw	r18,8(sp)
 1200750:	2825883a 	mov	r18,r5
 1200754:	89400304 	addi	r5,r17,12
 1200758:	dc000015 	stw	r16,0(sp)
 120075c:	dfc00315 	stw	ra,12(sp)
 1200760:	1200a940 	call	1200a94 <_malloc_r>
 1200764:	1021883a 	mov	r16,r2
 1200768:	10000726 	beq	r2,zero,1200788 <__sfmoreglue+0x48>
 120076c:	11000304 	addi	r4,r2,12
 1200770:	10000015 	stw	zero,0(r2)
 1200774:	14800115 	stw	r18,4(r2)
 1200778:	11000215 	stw	r4,8(r2)
 120077c:	000b883a 	mov	r5,zero
 1200780:	880d883a 	mov	r6,r17
 1200784:	120145c0 	call	120145c <memset>
 1200788:	8005883a 	mov	r2,r16
 120078c:	dfc00317 	ldw	ra,12(sp)
 1200790:	dc800217 	ldw	r18,8(sp)
 1200794:	dc400117 	ldw	r17,4(sp)
 1200798:	dc000017 	ldw	r16,0(sp)
 120079c:	dec00404 	addi	sp,sp,16
 12007a0:	f800283a 	ret

012007a4 <__sfp>:
 12007a4:	008048b4 	movhi	r2,290
 12007a8:	defffb04 	addi	sp,sp,-20
 12007ac:	10a62904 	addi	r2,r2,-26460
 12007b0:	dc800215 	stw	r18,8(sp)
 12007b4:	14800017 	ldw	r18,0(r2)
 12007b8:	dcc00315 	stw	r19,12(sp)
 12007bc:	dfc00415 	stw	ra,16(sp)
 12007c0:	90800e17 	ldw	r2,56(r18)
 12007c4:	dc400115 	stw	r17,4(sp)
 12007c8:	dc000015 	stw	r16,0(sp)
 12007cc:	2027883a 	mov	r19,r4
 12007d0:	1000021e 	bne	r2,zero,12007dc <__sfp+0x38>
 12007d4:	9009883a 	mov	r4,r18
 12007d8:	12005a00 	call	12005a0 <__sinit.part.1>
 12007dc:	9480b804 	addi	r18,r18,736
 12007e0:	047fffc4 	movi	r17,-1
 12007e4:	91400117 	ldw	r5,4(r18)
 12007e8:	94000217 	ldw	r16,8(r18)
 12007ec:	297fffc4 	addi	r5,r5,-1
 12007f0:	28000a16 	blt	r5,zero,120081c <__sfp+0x78>
 12007f4:	8080030f 	ldh	r2,12(r16)
 12007f8:	10000c26 	beq	r2,zero,120082c <__sfp+0x88>
 12007fc:	80c01d04 	addi	r3,r16,116
 1200800:	00000206 	br	120080c <__sfp+0x68>
 1200804:	18bfe60f 	ldh	r2,-104(r3)
 1200808:	10000826 	beq	r2,zero,120082c <__sfp+0x88>
 120080c:	297fffc4 	addi	r5,r5,-1
 1200810:	1c3ffd04 	addi	r16,r3,-12
 1200814:	18c01a04 	addi	r3,r3,104
 1200818:	2c7ffa1e 	bne	r5,r17,1200804 <__alt_mem_instruction_tcm+0xff200804>
 120081c:	90800017 	ldw	r2,0(r18)
 1200820:	10001d26 	beq	r2,zero,1200898 <__sfp+0xf4>
 1200824:	1025883a 	mov	r18,r2
 1200828:	003fee06 	br	12007e4 <__alt_mem_instruction_tcm+0xff2007e4>
 120082c:	00bfffc4 	movi	r2,-1
 1200830:	8080038d 	sth	r2,14(r16)
 1200834:	00800044 	movi	r2,1
 1200838:	8080030d 	sth	r2,12(r16)
 120083c:	80001915 	stw	zero,100(r16)
 1200840:	80000015 	stw	zero,0(r16)
 1200844:	80000215 	stw	zero,8(r16)
 1200848:	80000115 	stw	zero,4(r16)
 120084c:	80000415 	stw	zero,16(r16)
 1200850:	80000515 	stw	zero,20(r16)
 1200854:	80000615 	stw	zero,24(r16)
 1200858:	81001704 	addi	r4,r16,92
 120085c:	000b883a 	mov	r5,zero
 1200860:	01800204 	movi	r6,8
 1200864:	120145c0 	call	120145c <memset>
 1200868:	8005883a 	mov	r2,r16
 120086c:	80000c15 	stw	zero,48(r16)
 1200870:	80000d15 	stw	zero,52(r16)
 1200874:	80001115 	stw	zero,68(r16)
 1200878:	80001215 	stw	zero,72(r16)
 120087c:	dfc00417 	ldw	ra,16(sp)
 1200880:	dcc00317 	ldw	r19,12(sp)
 1200884:	dc800217 	ldw	r18,8(sp)
 1200888:	dc400117 	ldw	r17,4(sp)
 120088c:	dc000017 	ldw	r16,0(sp)
 1200890:	dec00504 	addi	sp,sp,20
 1200894:	f800283a 	ret
 1200898:	9809883a 	mov	r4,r19
 120089c:	01400104 	movi	r5,4
 12008a0:	12007400 	call	1200740 <__sfmoreglue>
 12008a4:	90800015 	stw	r2,0(r18)
 12008a8:	103fde1e 	bne	r2,zero,1200824 <__alt_mem_instruction_tcm+0xff200824>
 12008ac:	00800304 	movi	r2,12
 12008b0:	98800015 	stw	r2,0(r19)
 12008b4:	0005883a 	mov	r2,zero
 12008b8:	003ff006 	br	120087c <__alt_mem_instruction_tcm+0xff20087c>

012008bc <_cleanup>:
 12008bc:	008048b4 	movhi	r2,290
 12008c0:	10a62904 	addi	r2,r2,-26460
 12008c4:	11000017 	ldw	r4,0(r2)
 12008c8:	01404834 	movhi	r5,288
 12008cc:	294d1104 	addi	r5,r5,13380
 12008d0:	12009241 	jmpi	1200924 <_fwalk>

012008d4 <__sinit>:
 12008d4:	20800e17 	ldw	r2,56(r4)
 12008d8:	10000126 	beq	r2,zero,12008e0 <__sinit+0xc>
 12008dc:	f800283a 	ret
 12008e0:	12005a01 	jmpi	12005a0 <__sinit.part.1>

012008e4 <__sfp_lock_acquire>:
 12008e4:	f800283a 	ret

012008e8 <__sfp_lock_release>:
 12008e8:	f800283a 	ret

012008ec <__sinit_lock_acquire>:
 12008ec:	f800283a 	ret

012008f0 <__sinit_lock_release>:
 12008f0:	f800283a 	ret

012008f4 <__fp_lock_all>:
 12008f4:	008048b4 	movhi	r2,290
 12008f8:	10a62a04 	addi	r2,r2,-26456
 12008fc:	11000017 	ldw	r4,0(r2)
 1200900:	01404834 	movhi	r5,288
 1200904:	29416104 	addi	r5,r5,1412
 1200908:	12009241 	jmpi	1200924 <_fwalk>

0120090c <__fp_unlock_all>:
 120090c:	008048b4 	movhi	r2,290
 1200910:	10a62a04 	addi	r2,r2,-26456
 1200914:	11000017 	ldw	r4,0(r2)
 1200918:	01404834 	movhi	r5,288
 120091c:	29416304 	addi	r5,r5,1420
 1200920:	12009241 	jmpi	1200924 <_fwalk>

01200924 <_fwalk>:
 1200924:	defff804 	addi	sp,sp,-32
 1200928:	dd400515 	stw	r21,20(sp)
 120092c:	2540b804 	addi	r21,r4,736
 1200930:	dd800615 	stw	r22,24(sp)
 1200934:	dd000415 	stw	r20,16(sp)
 1200938:	dfc00715 	stw	ra,28(sp)
 120093c:	dcc00315 	stw	r19,12(sp)
 1200940:	dc800215 	stw	r18,8(sp)
 1200944:	dc400115 	stw	r17,4(sp)
 1200948:	dc000015 	stw	r16,0(sp)
 120094c:	2829883a 	mov	r20,r5
 1200950:	002d883a 	mov	r22,zero
 1200954:	12008e40 	call	12008e4 <__sfp_lock_acquire>
 1200958:	a8001426 	beq	r21,zero,12009ac <_fwalk+0x88>
 120095c:	04ffffc4 	movi	r19,-1
 1200960:	ac400117 	ldw	r17,4(r21)
 1200964:	ac800217 	ldw	r18,8(r21)
 1200968:	8c7fffc4 	addi	r17,r17,-1
 120096c:	88000d16 	blt	r17,zero,12009a4 <_fwalk+0x80>
 1200970:	94000304 	addi	r16,r18,12
 1200974:	94800384 	addi	r18,r18,14
 1200978:	80c0000f 	ldh	r3,0(r16)
 120097c:	8c7fffc4 	addi	r17,r17,-1
 1200980:	813ffd04 	addi	r4,r16,-12
 1200984:	18000426 	beq	r3,zero,1200998 <_fwalk+0x74>
 1200988:	90c0000f 	ldh	r3,0(r18)
 120098c:	1cc00226 	beq	r3,r19,1200998 <_fwalk+0x74>
 1200990:	a03ee83a 	callr	r20
 1200994:	b0acb03a 	or	r22,r22,r2
 1200998:	84001a04 	addi	r16,r16,104
 120099c:	94801a04 	addi	r18,r18,104
 12009a0:	8cfff51e 	bne	r17,r19,1200978 <__alt_mem_instruction_tcm+0xff200978>
 12009a4:	ad400017 	ldw	r21,0(r21)
 12009a8:	a83fed1e 	bne	r21,zero,1200960 <__alt_mem_instruction_tcm+0xff200960>
 12009ac:	12008e80 	call	12008e8 <__sfp_lock_release>
 12009b0:	b005883a 	mov	r2,r22
 12009b4:	dfc00717 	ldw	ra,28(sp)
 12009b8:	dd800617 	ldw	r22,24(sp)
 12009bc:	dd400517 	ldw	r21,20(sp)
 12009c0:	dd000417 	ldw	r20,16(sp)
 12009c4:	dcc00317 	ldw	r19,12(sp)
 12009c8:	dc800217 	ldw	r18,8(sp)
 12009cc:	dc400117 	ldw	r17,4(sp)
 12009d0:	dc000017 	ldw	r16,0(sp)
 12009d4:	dec00804 	addi	sp,sp,32
 12009d8:	f800283a 	ret

012009dc <_fwalk_reent>:
 12009dc:	defff804 	addi	sp,sp,-32
 12009e0:	dd400515 	stw	r21,20(sp)
 12009e4:	2540b804 	addi	r21,r4,736
 12009e8:	dd800615 	stw	r22,24(sp)
 12009ec:	dd000415 	stw	r20,16(sp)
 12009f0:	dcc00315 	stw	r19,12(sp)
 12009f4:	dfc00715 	stw	ra,28(sp)
 12009f8:	dc800215 	stw	r18,8(sp)
 12009fc:	dc400115 	stw	r17,4(sp)
 1200a00:	dc000015 	stw	r16,0(sp)
 1200a04:	2027883a 	mov	r19,r4
 1200a08:	2829883a 	mov	r20,r5
 1200a0c:	002d883a 	mov	r22,zero
 1200a10:	12008e40 	call	12008e4 <__sfp_lock_acquire>
 1200a14:	a8001326 	beq	r21,zero,1200a64 <_fwalk_reent+0x88>
 1200a18:	04bfffc4 	movi	r18,-1
 1200a1c:	ac400117 	ldw	r17,4(r21)
 1200a20:	ac000217 	ldw	r16,8(r21)
 1200a24:	8c7fffc4 	addi	r17,r17,-1
 1200a28:	88000c16 	blt	r17,zero,1200a5c <_fwalk_reent+0x80>
 1200a2c:	84000304 	addi	r16,r16,12
 1200a30:	80c0000f 	ldh	r3,0(r16)
 1200a34:	8c7fffc4 	addi	r17,r17,-1
 1200a38:	817ffd04 	addi	r5,r16,-12
 1200a3c:	18000526 	beq	r3,zero,1200a54 <_fwalk_reent+0x78>
 1200a40:	80c0008f 	ldh	r3,2(r16)
 1200a44:	9809883a 	mov	r4,r19
 1200a48:	1c800226 	beq	r3,r18,1200a54 <_fwalk_reent+0x78>
 1200a4c:	a03ee83a 	callr	r20
 1200a50:	b0acb03a 	or	r22,r22,r2
 1200a54:	84001a04 	addi	r16,r16,104
 1200a58:	8cbff51e 	bne	r17,r18,1200a30 <__alt_mem_instruction_tcm+0xff200a30>
 1200a5c:	ad400017 	ldw	r21,0(r21)
 1200a60:	a83fee1e 	bne	r21,zero,1200a1c <__alt_mem_instruction_tcm+0xff200a1c>
 1200a64:	12008e80 	call	12008e8 <__sfp_lock_release>
 1200a68:	b005883a 	mov	r2,r22
 1200a6c:	dfc00717 	ldw	ra,28(sp)
 1200a70:	dd800617 	ldw	r22,24(sp)
 1200a74:	dd400517 	ldw	r21,20(sp)
 1200a78:	dd000417 	ldw	r20,16(sp)
 1200a7c:	dcc00317 	ldw	r19,12(sp)
 1200a80:	dc800217 	ldw	r18,8(sp)
 1200a84:	dc400117 	ldw	r17,4(sp)
 1200a88:	dc000017 	ldw	r16,0(sp)
 1200a8c:	dec00804 	addi	sp,sp,32
 1200a90:	f800283a 	ret

01200a94 <_malloc_r>:
 1200a94:	defff504 	addi	sp,sp,-44
 1200a98:	dc800315 	stw	r18,12(sp)
 1200a9c:	dfc00a15 	stw	ra,40(sp)
 1200aa0:	df000915 	stw	fp,36(sp)
 1200aa4:	ddc00815 	stw	r23,32(sp)
 1200aa8:	dd800715 	stw	r22,28(sp)
 1200aac:	dd400615 	stw	r21,24(sp)
 1200ab0:	dd000515 	stw	r20,20(sp)
 1200ab4:	dcc00415 	stw	r19,16(sp)
 1200ab8:	dc400215 	stw	r17,8(sp)
 1200abc:	dc000115 	stw	r16,4(sp)
 1200ac0:	288002c4 	addi	r2,r5,11
 1200ac4:	00c00584 	movi	r3,22
 1200ac8:	2025883a 	mov	r18,r4
 1200acc:	18802a2e 	bgeu	r3,r2,1200b78 <_malloc_r+0xe4>
 1200ad0:	047ffe04 	movi	r17,-8
 1200ad4:	1462703a 	and	r17,r2,r17
 1200ad8:	88009e16 	blt	r17,zero,1200d54 <_malloc_r+0x2c0>
 1200adc:	89409d36 	bltu	r17,r5,1200d54 <_malloc_r+0x2c0>
 1200ae0:	1212be40 	call	1212be4 <__malloc_lock>
 1200ae4:	00807dc4 	movi	r2,503
 1200ae8:	14402736 	bltu	r2,r17,1200b88 <_malloc_r+0xf4>
 1200aec:	8806d0fa 	srli	r3,r17,3
 1200af0:	04c048b4 	movhi	r19,290
 1200af4:	9ce04604 	addi	r19,r19,-32488
 1200af8:	18c5883a 	add	r2,r3,r3
 1200afc:	1085883a 	add	r2,r2,r2
 1200b00:	1085883a 	add	r2,r2,r2
 1200b04:	9885883a 	add	r2,r19,r2
 1200b08:	14000317 	ldw	r16,12(r2)
 1200b0c:	80814a26 	beq	r16,r2,1201038 <_malloc_r+0x5a4>
 1200b10:	80c00117 	ldw	r3,4(r16)
 1200b14:	81000317 	ldw	r4,12(r16)
 1200b18:	00bfff04 	movi	r2,-4
 1200b1c:	1884703a 	and	r2,r3,r2
 1200b20:	81400217 	ldw	r5,8(r16)
 1200b24:	8085883a 	add	r2,r16,r2
 1200b28:	10c00117 	ldw	r3,4(r2)
 1200b2c:	29000315 	stw	r4,12(r5)
 1200b30:	21400215 	stw	r5,8(r4)
 1200b34:	18c00054 	ori	r3,r3,1
 1200b38:	10c00115 	stw	r3,4(r2)
 1200b3c:	9009883a 	mov	r4,r18
 1200b40:	1212c040 	call	1212c04 <__malloc_unlock>
 1200b44:	80800204 	addi	r2,r16,8
 1200b48:	dfc00a17 	ldw	ra,40(sp)
 1200b4c:	df000917 	ldw	fp,36(sp)
 1200b50:	ddc00817 	ldw	r23,32(sp)
 1200b54:	dd800717 	ldw	r22,28(sp)
 1200b58:	dd400617 	ldw	r21,24(sp)
 1200b5c:	dd000517 	ldw	r20,20(sp)
 1200b60:	dcc00417 	ldw	r19,16(sp)
 1200b64:	dc800317 	ldw	r18,12(sp)
 1200b68:	dc400217 	ldw	r17,8(sp)
 1200b6c:	dc000117 	ldw	r16,4(sp)
 1200b70:	dec00b04 	addi	sp,sp,44
 1200b74:	f800283a 	ret
 1200b78:	04400404 	movi	r17,16
 1200b7c:	89407536 	bltu	r17,r5,1200d54 <_malloc_r+0x2c0>
 1200b80:	1212be40 	call	1212be4 <__malloc_lock>
 1200b84:	003fd906 	br	1200aec <__alt_mem_instruction_tcm+0xff200aec>
 1200b88:	8806d27a 	srli	r3,r17,9
 1200b8c:	18007526 	beq	r3,zero,1200d64 <_malloc_r+0x2d0>
 1200b90:	00800104 	movi	r2,4
 1200b94:	10c0ef36 	bltu	r2,r3,1200f54 <_malloc_r+0x4c0>
 1200b98:	8806d1ba 	srli	r3,r17,6
 1200b9c:	19c00e04 	addi	r7,r3,56
 1200ba0:	39cb883a 	add	r5,r7,r7
 1200ba4:	04c048b4 	movhi	r19,290
 1200ba8:	294b883a 	add	r5,r5,r5
 1200bac:	9ce04604 	addi	r19,r19,-32488
 1200bb0:	294b883a 	add	r5,r5,r5
 1200bb4:	994b883a 	add	r5,r19,r5
 1200bb8:	2c000317 	ldw	r16,12(r5)
 1200bbc:	2c000e26 	beq	r5,r16,1200bf8 <_malloc_r+0x164>
 1200bc0:	80800117 	ldw	r2,4(r16)
 1200bc4:	01bfff04 	movi	r6,-4
 1200bc8:	010003c4 	movi	r4,15
 1200bcc:	1184703a 	and	r2,r2,r6
 1200bd0:	1447c83a 	sub	r3,r2,r17
 1200bd4:	20c00716 	blt	r4,r3,1200bf4 <_malloc_r+0x160>
 1200bd8:	1800650e 	bge	r3,zero,1200d70 <_malloc_r+0x2dc>
 1200bdc:	84000317 	ldw	r16,12(r16)
 1200be0:	2c000526 	beq	r5,r16,1200bf8 <_malloc_r+0x164>
 1200be4:	80800117 	ldw	r2,4(r16)
 1200be8:	1184703a 	and	r2,r2,r6
 1200bec:	1447c83a 	sub	r3,r2,r17
 1200bf0:	20fff90e 	bge	r4,r3,1200bd8 <__alt_mem_instruction_tcm+0xff200bd8>
 1200bf4:	39ffffc4 	addi	r7,r7,-1
 1200bf8:	38c00044 	addi	r3,r7,1
 1200bfc:	018048b4 	movhi	r6,290
 1200c00:	9c000417 	ldw	r16,16(r19)
 1200c04:	31a04604 	addi	r6,r6,-32488
 1200c08:	32400204 	addi	r9,r6,8
 1200c0c:	82410326 	beq	r16,r9,120101c <_malloc_r+0x588>
 1200c10:	81000117 	ldw	r4,4(r16)
 1200c14:	00bfff04 	movi	r2,-4
 1200c18:	208e703a 	and	r7,r4,r2
 1200c1c:	3c45c83a 	sub	r2,r7,r17
 1200c20:	010003c4 	movi	r4,15
 1200c24:	2080ee16 	blt	r4,r2,1200fe0 <_malloc_r+0x54c>
 1200c28:	32400515 	stw	r9,20(r6)
 1200c2c:	32400415 	stw	r9,16(r6)
 1200c30:	1000510e 	bge	r2,zero,1200d78 <_malloc_r+0x2e4>
 1200c34:	00807fc4 	movi	r2,511
 1200c38:	11c0ce36 	bltu	r2,r7,1200f74 <_malloc_r+0x4e0>
 1200c3c:	3808d0fa 	srli	r4,r7,3
 1200c40:	01c00044 	movi	r7,1
 1200c44:	30800117 	ldw	r2,4(r6)
 1200c48:	210b883a 	add	r5,r4,r4
 1200c4c:	294b883a 	add	r5,r5,r5
 1200c50:	2009d0ba 	srai	r4,r4,2
 1200c54:	294b883a 	add	r5,r5,r5
 1200c58:	298b883a 	add	r5,r5,r6
 1200c5c:	2a000217 	ldw	r8,8(r5)
 1200c60:	3908983a 	sll	r4,r7,r4
 1200c64:	81400315 	stw	r5,12(r16)
 1200c68:	82000215 	stw	r8,8(r16)
 1200c6c:	2088b03a 	or	r4,r4,r2
 1200c70:	2c000215 	stw	r16,8(r5)
 1200c74:	31000115 	stw	r4,4(r6)
 1200c78:	44000315 	stw	r16,12(r8)
 1200c7c:	1805d0ba 	srai	r2,r3,2
 1200c80:	01400044 	movi	r5,1
 1200c84:	288a983a 	sll	r5,r5,r2
 1200c88:	21404336 	bltu	r4,r5,1200d98 <_malloc_r+0x304>
 1200c8c:	2144703a 	and	r2,r4,r5
 1200c90:	10000a1e 	bne	r2,zero,1200cbc <_malloc_r+0x228>
 1200c94:	00bfff04 	movi	r2,-4
 1200c98:	294b883a 	add	r5,r5,r5
 1200c9c:	1886703a 	and	r3,r3,r2
 1200ca0:	2144703a 	and	r2,r4,r5
 1200ca4:	18c00104 	addi	r3,r3,4
 1200ca8:	1000041e 	bne	r2,zero,1200cbc <_malloc_r+0x228>
 1200cac:	294b883a 	add	r5,r5,r5
 1200cb0:	2144703a 	and	r2,r4,r5
 1200cb4:	18c00104 	addi	r3,r3,4
 1200cb8:	103ffc26 	beq	r2,zero,1200cac <__alt_mem_instruction_tcm+0xff200cac>
 1200cbc:	023fff04 	movi	r8,-4
 1200cc0:	01c003c4 	movi	r7,15
 1200cc4:	18c5883a 	add	r2,r3,r3
 1200cc8:	1085883a 	add	r2,r2,r2
 1200ccc:	1085883a 	add	r2,r2,r2
 1200cd0:	9895883a 	add	r10,r19,r2
 1200cd4:	52c00304 	addi	r11,r10,12
 1200cd8:	1819883a 	mov	r12,r3
 1200cdc:	5c000017 	ldw	r16,0(r11)
 1200ce0:	59bffd04 	addi	r6,r11,-12
 1200ce4:	8180041e 	bne	r16,r6,1200cf8 <_malloc_r+0x264>
 1200ce8:	0000ce06 	br	1201024 <_malloc_r+0x590>
 1200cec:	2000d70e 	bge	r4,zero,120104c <_malloc_r+0x5b8>
 1200cf0:	84000317 	ldw	r16,12(r16)
 1200cf4:	8180cb26 	beq	r16,r6,1201024 <_malloc_r+0x590>
 1200cf8:	80800117 	ldw	r2,4(r16)
 1200cfc:	1204703a 	and	r2,r2,r8
 1200d00:	1449c83a 	sub	r4,r2,r17
 1200d04:	393ff90e 	bge	r7,r4,1200cec <__alt_mem_instruction_tcm+0xff200cec>
 1200d08:	80800317 	ldw	r2,12(r16)
 1200d0c:	80c00217 	ldw	r3,8(r16)
 1200d10:	89400054 	ori	r5,r17,1
 1200d14:	81400115 	stw	r5,4(r16)
 1200d18:	18800315 	stw	r2,12(r3)
 1200d1c:	10c00215 	stw	r3,8(r2)
 1200d20:	8463883a 	add	r17,r16,r17
 1200d24:	9c400515 	stw	r17,20(r19)
 1200d28:	9c400415 	stw	r17,16(r19)
 1200d2c:	20800054 	ori	r2,r4,1
 1200d30:	88800115 	stw	r2,4(r17)
 1200d34:	8a400315 	stw	r9,12(r17)
 1200d38:	8a400215 	stw	r9,8(r17)
 1200d3c:	8923883a 	add	r17,r17,r4
 1200d40:	89000015 	stw	r4,0(r17)
 1200d44:	9009883a 	mov	r4,r18
 1200d48:	1212c040 	call	1212c04 <__malloc_unlock>
 1200d4c:	80800204 	addi	r2,r16,8
 1200d50:	003f7d06 	br	1200b48 <__alt_mem_instruction_tcm+0xff200b48>
 1200d54:	00800304 	movi	r2,12
 1200d58:	90800015 	stw	r2,0(r18)
 1200d5c:	0005883a 	mov	r2,zero
 1200d60:	003f7906 	br	1200b48 <__alt_mem_instruction_tcm+0xff200b48>
 1200d64:	01401f84 	movi	r5,126
 1200d68:	01c00fc4 	movi	r7,63
 1200d6c:	003f8d06 	br	1200ba4 <__alt_mem_instruction_tcm+0xff200ba4>
 1200d70:	81000317 	ldw	r4,12(r16)
 1200d74:	003f6a06 	br	1200b20 <__alt_mem_instruction_tcm+0xff200b20>
 1200d78:	81c5883a 	add	r2,r16,r7
 1200d7c:	10c00117 	ldw	r3,4(r2)
 1200d80:	9009883a 	mov	r4,r18
 1200d84:	18c00054 	ori	r3,r3,1
 1200d88:	10c00115 	stw	r3,4(r2)
 1200d8c:	1212c040 	call	1212c04 <__malloc_unlock>
 1200d90:	80800204 	addi	r2,r16,8
 1200d94:	003f6c06 	br	1200b48 <__alt_mem_instruction_tcm+0xff200b48>
 1200d98:	9c000217 	ldw	r16,8(r19)
 1200d9c:	00bfff04 	movi	r2,-4
 1200da0:	85800117 	ldw	r22,4(r16)
 1200da4:	b0ac703a 	and	r22,r22,r2
 1200da8:	b4400336 	bltu	r22,r17,1200db8 <_malloc_r+0x324>
 1200dac:	b445c83a 	sub	r2,r22,r17
 1200db0:	00c003c4 	movi	r3,15
 1200db4:	18805d16 	blt	r3,r2,1200f2c <_malloc_r+0x498>
 1200db8:	05c048b4 	movhi	r23,290
 1200dbc:	008048b4 	movhi	r2,290
 1200dc0:	bde62b04 	addi	r23,r23,-26452
 1200dc4:	10a63e04 	addi	r2,r2,-26376
 1200dc8:	15400017 	ldw	r21,0(r2)
 1200dcc:	b9000017 	ldw	r4,0(r23)
 1200dd0:	00ffffc4 	movi	r3,-1
 1200dd4:	858d883a 	add	r6,r16,r22
 1200dd8:	8d6b883a 	add	r21,r17,r21
 1200ddc:	20c0e426 	beq	r4,r3,1201170 <_malloc_r+0x6dc>
 1200de0:	ad4403c4 	addi	r21,r21,4111
 1200de4:	00fc0004 	movi	r3,-4096
 1200de8:	a8ea703a 	and	r21,r21,r3
 1200dec:	9009883a 	mov	r4,r18
 1200df0:	a80b883a 	mov	r5,r21
 1200df4:	d9800015 	stw	r6,0(sp)
 1200df8:	12018100 	call	1201810 <_sbrk_r>
 1200dfc:	00ffffc4 	movi	r3,-1
 1200e00:	1029883a 	mov	r20,r2
 1200e04:	d9800017 	ldw	r6,0(sp)
 1200e08:	10c0a426 	beq	r2,r3,120109c <_malloc_r+0x608>
 1200e0c:	1180a236 	bltu	r2,r6,1201098 <_malloc_r+0x604>
 1200e10:	070048b4 	movhi	fp,290
 1200e14:	e7264a04 	addi	fp,fp,-26328
 1200e18:	e0c00017 	ldw	r3,0(fp)
 1200e1c:	a8c7883a 	add	r3,r21,r3
 1200e20:	e0c00015 	stw	r3,0(fp)
 1200e24:	3500da26 	beq	r6,r20,1201190 <_malloc_r+0x6fc>
 1200e28:	b9000017 	ldw	r4,0(r23)
 1200e2c:	00bfffc4 	movi	r2,-1
 1200e30:	2080e426 	beq	r4,r2,12011c4 <_malloc_r+0x730>
 1200e34:	a185c83a 	sub	r2,r20,r6
 1200e38:	1885883a 	add	r2,r3,r2
 1200e3c:	e0800015 	stw	r2,0(fp)
 1200e40:	a0c001cc 	andi	r3,r20,7
 1200e44:	1800b526 	beq	r3,zero,120111c <_malloc_r+0x688>
 1200e48:	a0e9c83a 	sub	r20,r20,r3
 1200e4c:	00840204 	movi	r2,4104
 1200e50:	a5000204 	addi	r20,r20,8
 1200e54:	10c7c83a 	sub	r3,r2,r3
 1200e58:	a545883a 	add	r2,r20,r21
 1200e5c:	1083ffcc 	andi	r2,r2,4095
 1200e60:	18abc83a 	sub	r21,r3,r2
 1200e64:	9009883a 	mov	r4,r18
 1200e68:	a80b883a 	mov	r5,r21
 1200e6c:	12018100 	call	1201810 <_sbrk_r>
 1200e70:	00ffffc4 	movi	r3,-1
 1200e74:	10c0d026 	beq	r2,r3,12011b8 <_malloc_r+0x724>
 1200e78:	1507c83a 	sub	r3,r2,r20
 1200e7c:	a8c7883a 	add	r3,r21,r3
 1200e80:	18c00054 	ori	r3,r3,1
 1200e84:	e0800017 	ldw	r2,0(fp)
 1200e88:	9d000215 	stw	r20,8(r19)
 1200e8c:	a0c00115 	stw	r3,4(r20)
 1200e90:	a887883a 	add	r3,r21,r2
 1200e94:	e0c00015 	stw	r3,0(fp)
 1200e98:	84c00e26 	beq	r16,r19,1200ed4 <_malloc_r+0x440>
 1200e9c:	018003c4 	movi	r6,15
 1200ea0:	3580a02e 	bgeu	r6,r22,1201124 <_malloc_r+0x690>
 1200ea4:	81400117 	ldw	r5,4(r16)
 1200ea8:	013ffe04 	movi	r4,-8
 1200eac:	b0bffd04 	addi	r2,r22,-12
 1200eb0:	1104703a 	and	r2,r2,r4
 1200eb4:	2900004c 	andi	r4,r5,1
 1200eb8:	1108b03a 	or	r4,r2,r4
 1200ebc:	81000115 	stw	r4,4(r16)
 1200ec0:	01400144 	movi	r5,5
 1200ec4:	8089883a 	add	r4,r16,r2
 1200ec8:	21400115 	stw	r5,4(r4)
 1200ecc:	21400215 	stw	r5,8(r4)
 1200ed0:	3080c036 	bltu	r6,r2,12011d4 <_malloc_r+0x740>
 1200ed4:	008048b4 	movhi	r2,290
 1200ed8:	10a63d04 	addi	r2,r2,-26380
 1200edc:	11000017 	ldw	r4,0(r2)
 1200ee0:	20c0012e 	bgeu	r4,r3,1200ee8 <_malloc_r+0x454>
 1200ee4:	10c00015 	stw	r3,0(r2)
 1200ee8:	008048b4 	movhi	r2,290
 1200eec:	10a63c04 	addi	r2,r2,-26384
 1200ef0:	11000017 	ldw	r4,0(r2)
 1200ef4:	9c000217 	ldw	r16,8(r19)
 1200ef8:	20c0012e 	bgeu	r4,r3,1200f00 <_malloc_r+0x46c>
 1200efc:	10c00015 	stw	r3,0(r2)
 1200f00:	80c00117 	ldw	r3,4(r16)
 1200f04:	00bfff04 	movi	r2,-4
 1200f08:	1886703a 	and	r3,r3,r2
 1200f0c:	1c45c83a 	sub	r2,r3,r17
 1200f10:	1c400236 	bltu	r3,r17,1200f1c <_malloc_r+0x488>
 1200f14:	00c003c4 	movi	r3,15
 1200f18:	18800416 	blt	r3,r2,1200f2c <_malloc_r+0x498>
 1200f1c:	9009883a 	mov	r4,r18
 1200f20:	1212c040 	call	1212c04 <__malloc_unlock>
 1200f24:	0005883a 	mov	r2,zero
 1200f28:	003f0706 	br	1200b48 <__alt_mem_instruction_tcm+0xff200b48>
 1200f2c:	88c00054 	ori	r3,r17,1
 1200f30:	80c00115 	stw	r3,4(r16)
 1200f34:	8463883a 	add	r17,r16,r17
 1200f38:	10800054 	ori	r2,r2,1
 1200f3c:	9c400215 	stw	r17,8(r19)
 1200f40:	88800115 	stw	r2,4(r17)
 1200f44:	9009883a 	mov	r4,r18
 1200f48:	1212c040 	call	1212c04 <__malloc_unlock>
 1200f4c:	80800204 	addi	r2,r16,8
 1200f50:	003efd06 	br	1200b48 <__alt_mem_instruction_tcm+0xff200b48>
 1200f54:	00800504 	movi	r2,20
 1200f58:	10c0482e 	bgeu	r2,r3,120107c <_malloc_r+0x5e8>
 1200f5c:	00801504 	movi	r2,84
 1200f60:	10c06836 	bltu	r2,r3,1201104 <_malloc_r+0x670>
 1200f64:	8806d33a 	srli	r3,r17,12
 1200f68:	19c01b84 	addi	r7,r3,110
 1200f6c:	39cb883a 	add	r5,r7,r7
 1200f70:	003f0c06 	br	1200ba4 <__alt_mem_instruction_tcm+0xff200ba4>
 1200f74:	3804d27a 	srli	r2,r7,9
 1200f78:	01000104 	movi	r4,4
 1200f7c:	2080422e 	bgeu	r4,r2,1201088 <_malloc_r+0x5f4>
 1200f80:	01000504 	movi	r4,20
 1200f84:	20807c36 	bltu	r4,r2,1201178 <_malloc_r+0x6e4>
 1200f88:	110016c4 	addi	r4,r2,91
 1200f8c:	210b883a 	add	r5,r4,r4
 1200f90:	294b883a 	add	r5,r5,r5
 1200f94:	294b883a 	add	r5,r5,r5
 1200f98:	994b883a 	add	r5,r19,r5
 1200f9c:	28800217 	ldw	r2,8(r5)
 1200fa0:	020048b4 	movhi	r8,290
 1200fa4:	42204604 	addi	r8,r8,-32488
 1200fa8:	11406326 	beq	r2,r5,1201138 <_malloc_r+0x6a4>
 1200fac:	01bfff04 	movi	r6,-4
 1200fb0:	11000117 	ldw	r4,4(r2)
 1200fb4:	2188703a 	and	r4,r4,r6
 1200fb8:	3900022e 	bgeu	r7,r4,1200fc4 <_malloc_r+0x530>
 1200fbc:	10800217 	ldw	r2,8(r2)
 1200fc0:	28bffb1e 	bne	r5,r2,1200fb0 <__alt_mem_instruction_tcm+0xff200fb0>
 1200fc4:	11800317 	ldw	r6,12(r2)
 1200fc8:	99000117 	ldw	r4,4(r19)
 1200fcc:	81800315 	stw	r6,12(r16)
 1200fd0:	80800215 	stw	r2,8(r16)
 1200fd4:	34000215 	stw	r16,8(r6)
 1200fd8:	14000315 	stw	r16,12(r2)
 1200fdc:	003f2706 	br	1200c7c <__alt_mem_instruction_tcm+0xff200c7c>
 1200fe0:	88c00054 	ori	r3,r17,1
 1200fe4:	80c00115 	stw	r3,4(r16)
 1200fe8:	8463883a 	add	r17,r16,r17
 1200fec:	34400515 	stw	r17,20(r6)
 1200ff0:	34400415 	stw	r17,16(r6)
 1200ff4:	10c00054 	ori	r3,r2,1
 1200ff8:	8a400315 	stw	r9,12(r17)
 1200ffc:	8a400215 	stw	r9,8(r17)
 1201000:	88c00115 	stw	r3,4(r17)
 1201004:	88a3883a 	add	r17,r17,r2
 1201008:	88800015 	stw	r2,0(r17)
 120100c:	9009883a 	mov	r4,r18
 1201010:	1212c040 	call	1212c04 <__malloc_unlock>
 1201014:	80800204 	addi	r2,r16,8
 1201018:	003ecb06 	br	1200b48 <__alt_mem_instruction_tcm+0xff200b48>
 120101c:	31000117 	ldw	r4,4(r6)
 1201020:	003f1606 	br	1200c7c <__alt_mem_instruction_tcm+0xff200c7c>
 1201024:	63000044 	addi	r12,r12,1
 1201028:	608000cc 	andi	r2,r12,3
 120102c:	5ac00204 	addi	r11,r11,8
 1201030:	103f2a1e 	bne	r2,zero,1200cdc <__alt_mem_instruction_tcm+0xff200cdc>
 1201034:	00002106 	br	12010bc <_malloc_r+0x628>
 1201038:	80800204 	addi	r2,r16,8
 120103c:	84000517 	ldw	r16,20(r16)
 1201040:	143eb31e 	bne	r2,r16,1200b10 <__alt_mem_instruction_tcm+0xff200b10>
 1201044:	18c00084 	addi	r3,r3,2
 1201048:	003eec06 	br	1200bfc <__alt_mem_instruction_tcm+0xff200bfc>
 120104c:	8085883a 	add	r2,r16,r2
 1201050:	10c00117 	ldw	r3,4(r2)
 1201054:	81000317 	ldw	r4,12(r16)
 1201058:	81400217 	ldw	r5,8(r16)
 120105c:	18c00054 	ori	r3,r3,1
 1201060:	10c00115 	stw	r3,4(r2)
 1201064:	29000315 	stw	r4,12(r5)
 1201068:	21400215 	stw	r5,8(r4)
 120106c:	9009883a 	mov	r4,r18
 1201070:	1212c040 	call	1212c04 <__malloc_unlock>
 1201074:	80800204 	addi	r2,r16,8
 1201078:	003eb306 	br	1200b48 <__alt_mem_instruction_tcm+0xff200b48>
 120107c:	19c016c4 	addi	r7,r3,91
 1201080:	39cb883a 	add	r5,r7,r7
 1201084:	003ec706 	br	1200ba4 <__alt_mem_instruction_tcm+0xff200ba4>
 1201088:	3804d1ba 	srli	r2,r7,6
 120108c:	11000e04 	addi	r4,r2,56
 1201090:	210b883a 	add	r5,r4,r4
 1201094:	003fbe06 	br	1200f90 <__alt_mem_instruction_tcm+0xff200f90>
 1201098:	84ff5d26 	beq	r16,r19,1200e10 <__alt_mem_instruction_tcm+0xff200e10>
 120109c:	9c000217 	ldw	r16,8(r19)
 12010a0:	00bfff04 	movi	r2,-4
 12010a4:	80c00117 	ldw	r3,4(r16)
 12010a8:	1886703a 	and	r3,r3,r2
 12010ac:	003f9706 	br	1200f0c <__alt_mem_instruction_tcm+0xff200f0c>
 12010b0:	52800017 	ldw	r10,0(r10)
 12010b4:	18ffffc4 	addi	r3,r3,-1
 12010b8:	50805c1e 	bne	r10,r2,120122c <_malloc_r+0x798>
 12010bc:	190000cc 	andi	r4,r3,3
 12010c0:	50bffe04 	addi	r2,r10,-8
 12010c4:	203ffa1e 	bne	r4,zero,12010b0 <__alt_mem_instruction_tcm+0xff2010b0>
 12010c8:	98800117 	ldw	r2,4(r19)
 12010cc:	0146303a 	nor	r3,zero,r5
 12010d0:	1884703a 	and	r2,r3,r2
 12010d4:	98800115 	stw	r2,4(r19)
 12010d8:	294b883a 	add	r5,r5,r5
 12010dc:	117f2e36 	bltu	r2,r5,1200d98 <__alt_mem_instruction_tcm+0xff200d98>
 12010e0:	283f2d26 	beq	r5,zero,1200d98 <__alt_mem_instruction_tcm+0xff200d98>
 12010e4:	1146703a 	and	r3,r2,r5
 12010e8:	1800521e 	bne	r3,zero,1201234 <_malloc_r+0x7a0>
 12010ec:	6007883a 	mov	r3,r12
 12010f0:	294b883a 	add	r5,r5,r5
 12010f4:	1148703a 	and	r4,r2,r5
 12010f8:	18c00104 	addi	r3,r3,4
 12010fc:	203ffc26 	beq	r4,zero,12010f0 <__alt_mem_instruction_tcm+0xff2010f0>
 1201100:	003ef006 	br	1200cc4 <__alt_mem_instruction_tcm+0xff200cc4>
 1201104:	00805504 	movi	r2,340
 1201108:	10c01336 	bltu	r2,r3,1201158 <_malloc_r+0x6c4>
 120110c:	8806d3fa 	srli	r3,r17,15
 1201110:	19c01dc4 	addi	r7,r3,119
 1201114:	39cb883a 	add	r5,r7,r7
 1201118:	003ea206 	br	1200ba4 <__alt_mem_instruction_tcm+0xff200ba4>
 120111c:	00c40004 	movi	r3,4096
 1201120:	003f4d06 	br	1200e58 <__alt_mem_instruction_tcm+0xff200e58>
 1201124:	00800044 	movi	r2,1
 1201128:	a0800115 	stw	r2,4(r20)
 120112c:	a021883a 	mov	r16,r20
 1201130:	0007883a 	mov	r3,zero
 1201134:	003f7506 	br	1200f0c <__alt_mem_instruction_tcm+0xff200f0c>
 1201138:	200bd0ba 	srai	r5,r4,2
 120113c:	01800044 	movi	r6,1
 1201140:	41000117 	ldw	r4,4(r8)
 1201144:	314a983a 	sll	r5,r6,r5
 1201148:	100d883a 	mov	r6,r2
 120114c:	2908b03a 	or	r4,r5,r4
 1201150:	41000115 	stw	r4,4(r8)
 1201154:	003f9d06 	br	1200fcc <__alt_mem_instruction_tcm+0xff200fcc>
 1201158:	00815504 	movi	r2,1364
 120115c:	10c01336 	bltu	r2,r3,12011ac <_malloc_r+0x718>
 1201160:	8806d4ba 	srli	r3,r17,18
 1201164:	19c01f04 	addi	r7,r3,124
 1201168:	39cb883a 	add	r5,r7,r7
 120116c:	003e8d06 	br	1200ba4 <__alt_mem_instruction_tcm+0xff200ba4>
 1201170:	ad400404 	addi	r21,r21,16
 1201174:	003f1d06 	br	1200dec <__alt_mem_instruction_tcm+0xff200dec>
 1201178:	01001504 	movi	r4,84
 120117c:	20801c36 	bltu	r4,r2,12011f0 <_malloc_r+0x75c>
 1201180:	3804d33a 	srli	r2,r7,12
 1201184:	11001b84 	addi	r4,r2,110
 1201188:	210b883a 	add	r5,r4,r4
 120118c:	003f8006 	br	1200f90 <__alt_mem_instruction_tcm+0xff200f90>
 1201190:	3083ffcc 	andi	r2,r6,4095
 1201194:	103f241e 	bne	r2,zero,1200e28 <__alt_mem_instruction_tcm+0xff200e28>
 1201198:	99000217 	ldw	r4,8(r19)
 120119c:	ad85883a 	add	r2,r21,r22
 12011a0:	10800054 	ori	r2,r2,1
 12011a4:	20800115 	stw	r2,4(r4)
 12011a8:	003f4a06 	br	1200ed4 <__alt_mem_instruction_tcm+0xff200ed4>
 12011ac:	01403f04 	movi	r5,252
 12011b0:	01c01f84 	movi	r7,126
 12011b4:	003e7b06 	br	1200ba4 <__alt_mem_instruction_tcm+0xff200ba4>
 12011b8:	00c00044 	movi	r3,1
 12011bc:	002b883a 	mov	r21,zero
 12011c0:	003f3006 	br	1200e84 <__alt_mem_instruction_tcm+0xff200e84>
 12011c4:	008048b4 	movhi	r2,290
 12011c8:	10a62b04 	addi	r2,r2,-26452
 12011cc:	15000015 	stw	r20,0(r2)
 12011d0:	003f1b06 	br	1200e40 <__alt_mem_instruction_tcm+0xff200e40>
 12011d4:	9009883a 	mov	r4,r18
 12011d8:	81400204 	addi	r5,r16,8
 12011dc:	12037d40 	call	12037d4 <_free_r>
 12011e0:	008048b4 	movhi	r2,290
 12011e4:	10a64a04 	addi	r2,r2,-26328
 12011e8:	10c00017 	ldw	r3,0(r2)
 12011ec:	003f3906 	br	1200ed4 <__alt_mem_instruction_tcm+0xff200ed4>
 12011f0:	01005504 	movi	r4,340
 12011f4:	20800436 	bltu	r4,r2,1201208 <_malloc_r+0x774>
 12011f8:	3804d3fa 	srli	r2,r7,15
 12011fc:	11001dc4 	addi	r4,r2,119
 1201200:	210b883a 	add	r5,r4,r4
 1201204:	003f6206 	br	1200f90 <__alt_mem_instruction_tcm+0xff200f90>
 1201208:	01015504 	movi	r4,1364
 120120c:	20800436 	bltu	r4,r2,1201220 <_malloc_r+0x78c>
 1201210:	3804d4ba 	srli	r2,r7,18
 1201214:	11001f04 	addi	r4,r2,124
 1201218:	210b883a 	add	r5,r4,r4
 120121c:	003f5c06 	br	1200f90 <__alt_mem_instruction_tcm+0xff200f90>
 1201220:	01403f04 	movi	r5,252
 1201224:	01001f84 	movi	r4,126
 1201228:	003f5906 	br	1200f90 <__alt_mem_instruction_tcm+0xff200f90>
 120122c:	98800117 	ldw	r2,4(r19)
 1201230:	003fa906 	br	12010d8 <__alt_mem_instruction_tcm+0xff2010d8>
 1201234:	6007883a 	mov	r3,r12
 1201238:	003ea206 	br	1200cc4 <__alt_mem_instruction_tcm+0xff200cc4>

0120123c <memchr>:
 120123c:	208000cc 	andi	r2,r4,3
 1201240:	280f883a 	mov	r7,r5
 1201244:	10003526 	beq	r2,zero,120131c <memchr+0xe0>
 1201248:	30bfffc4 	addi	r2,r6,-1
 120124c:	30001b26 	beq	r6,zero,12012bc <memchr+0x80>
 1201250:	21800003 	ldbu	r6,0(r4)
 1201254:	28c03fcc 	andi	r3,r5,255
 1201258:	30c01a26 	beq	r6,r3,12012c4 <memchr+0x88>
 120125c:	180d883a 	mov	r6,r3
 1201260:	00000406 	br	1201274 <memchr+0x38>
 1201264:	10001526 	beq	r2,zero,12012bc <memchr+0x80>
 1201268:	20c00003 	ldbu	r3,0(r4)
 120126c:	10bfffc4 	addi	r2,r2,-1
 1201270:	19801426 	beq	r3,r6,12012c4 <memchr+0x88>
 1201274:	21000044 	addi	r4,r4,1
 1201278:	20c000cc 	andi	r3,r4,3
 120127c:	183ff91e 	bne	r3,zero,1201264 <__alt_mem_instruction_tcm+0xff201264>
 1201280:	024000c4 	movi	r9,3
 1201284:	48801136 	bltu	r9,r2,12012cc <memchr+0x90>
 1201288:	10000c26 	beq	r2,zero,12012bc <memchr+0x80>
 120128c:	20c00003 	ldbu	r3,0(r4)
 1201290:	29403fcc 	andi	r5,r5,255
 1201294:	19400b26 	beq	r3,r5,12012c4 <memchr+0x88>
 1201298:	20c00044 	addi	r3,r4,1
 120129c:	2085883a 	add	r2,r4,r2
 12012a0:	39803fcc 	andi	r6,r7,255
 12012a4:	00000306 	br	12012b4 <memchr+0x78>
 12012a8:	18c00044 	addi	r3,r3,1
 12012ac:	197fffc3 	ldbu	r5,-1(r3)
 12012b0:	29800426 	beq	r5,r6,12012c4 <memchr+0x88>
 12012b4:	1809883a 	mov	r4,r3
 12012b8:	18bffb1e 	bne	r3,r2,12012a8 <__alt_mem_instruction_tcm+0xff2012a8>
 12012bc:	0005883a 	mov	r2,zero
 12012c0:	f800283a 	ret
 12012c4:	2005883a 	mov	r2,r4
 12012c8:	f800283a 	ret
 12012cc:	28c03fcc 	andi	r3,r5,255
 12012d0:	1810923a 	slli	r8,r3,8
 12012d4:	02ffbff4 	movhi	r11,65279
 12012d8:	02a02074 	movhi	r10,32897
 12012dc:	40c6b03a 	or	r3,r8,r3
 12012e0:	1810943a 	slli	r8,r3,16
 12012e4:	5affbfc4 	addi	r11,r11,-257
 12012e8:	52a02004 	addi	r10,r10,-32640
 12012ec:	40d0b03a 	or	r8,r8,r3
 12012f0:	20c00017 	ldw	r3,0(r4)
 12012f4:	40c6f03a 	xor	r3,r8,r3
 12012f8:	1acd883a 	add	r6,r3,r11
 12012fc:	00c6303a 	nor	r3,zero,r3
 1201300:	30c6703a 	and	r3,r6,r3
 1201304:	1a86703a 	and	r3,r3,r10
 1201308:	183fdf1e 	bne	r3,zero,1201288 <__alt_mem_instruction_tcm+0xff201288>
 120130c:	10bfff04 	addi	r2,r2,-4
 1201310:	21000104 	addi	r4,r4,4
 1201314:	48bff636 	bltu	r9,r2,12012f0 <__alt_mem_instruction_tcm+0xff2012f0>
 1201318:	003fdb06 	br	1201288 <__alt_mem_instruction_tcm+0xff201288>
 120131c:	3005883a 	mov	r2,r6
 1201320:	003fd706 	br	1201280 <__alt_mem_instruction_tcm+0xff201280>

01201324 <memcpy>:
 1201324:	deffff04 	addi	sp,sp,-4
 1201328:	dc000015 	stw	r16,0(sp)
 120132c:	00c003c4 	movi	r3,15
 1201330:	2005883a 	mov	r2,r4
 1201334:	1980432e 	bgeu	r3,r6,1201444 <memcpy+0x120>
 1201338:	2146b03a 	or	r3,r4,r5
 120133c:	18c000cc 	andi	r3,r3,3
 1201340:	1800421e 	bne	r3,zero,120144c <memcpy+0x128>
 1201344:	343ffc04 	addi	r16,r6,-16
 1201348:	8020d13a 	srli	r16,r16,4
 120134c:	28c00104 	addi	r3,r5,4
 1201350:	23400104 	addi	r13,r4,4
 1201354:	801e913a 	slli	r15,r16,4
 1201358:	2b000204 	addi	r12,r5,8
 120135c:	22c00204 	addi	r11,r4,8
 1201360:	7bc00504 	addi	r15,r15,20
 1201364:	2a800304 	addi	r10,r5,12
 1201368:	22400304 	addi	r9,r4,12
 120136c:	2bdf883a 	add	r15,r5,r15
 1201370:	2811883a 	mov	r8,r5
 1201374:	200f883a 	mov	r7,r4
 1201378:	41000017 	ldw	r4,0(r8)
 120137c:	39c00404 	addi	r7,r7,16
 1201380:	18c00404 	addi	r3,r3,16
 1201384:	393ffc15 	stw	r4,-16(r7)
 1201388:	1bbffc17 	ldw	r14,-16(r3)
 120138c:	6b400404 	addi	r13,r13,16
 1201390:	5ac00404 	addi	r11,r11,16
 1201394:	6bbffc15 	stw	r14,-16(r13)
 1201398:	63800017 	ldw	r14,0(r12)
 120139c:	4a400404 	addi	r9,r9,16
 12013a0:	42000404 	addi	r8,r8,16
 12013a4:	5bbffc15 	stw	r14,-16(r11)
 12013a8:	53800017 	ldw	r14,0(r10)
 12013ac:	63000404 	addi	r12,r12,16
 12013b0:	52800404 	addi	r10,r10,16
 12013b4:	4bbffc15 	stw	r14,-16(r9)
 12013b8:	1bffef1e 	bne	r3,r15,1201378 <__alt_mem_instruction_tcm+0xff201378>
 12013bc:	81c00044 	addi	r7,r16,1
 12013c0:	380e913a 	slli	r7,r7,4
 12013c4:	310003cc 	andi	r4,r6,15
 12013c8:	02c000c4 	movi	r11,3
 12013cc:	11c7883a 	add	r3,r2,r7
 12013d0:	29cb883a 	add	r5,r5,r7
 12013d4:	59001f2e 	bgeu	r11,r4,1201454 <memcpy+0x130>
 12013d8:	1813883a 	mov	r9,r3
 12013dc:	2811883a 	mov	r8,r5
 12013e0:	200f883a 	mov	r7,r4
 12013e4:	42800017 	ldw	r10,0(r8)
 12013e8:	4a400104 	addi	r9,r9,4
 12013ec:	39ffff04 	addi	r7,r7,-4
 12013f0:	4abfff15 	stw	r10,-4(r9)
 12013f4:	42000104 	addi	r8,r8,4
 12013f8:	59fffa36 	bltu	r11,r7,12013e4 <__alt_mem_instruction_tcm+0xff2013e4>
 12013fc:	213fff04 	addi	r4,r4,-4
 1201400:	2008d0ba 	srli	r4,r4,2
 1201404:	318000cc 	andi	r6,r6,3
 1201408:	21000044 	addi	r4,r4,1
 120140c:	2109883a 	add	r4,r4,r4
 1201410:	2109883a 	add	r4,r4,r4
 1201414:	1907883a 	add	r3,r3,r4
 1201418:	290b883a 	add	r5,r5,r4
 120141c:	30000626 	beq	r6,zero,1201438 <memcpy+0x114>
 1201420:	198d883a 	add	r6,r3,r6
 1201424:	29c00003 	ldbu	r7,0(r5)
 1201428:	18c00044 	addi	r3,r3,1
 120142c:	29400044 	addi	r5,r5,1
 1201430:	19ffffc5 	stb	r7,-1(r3)
 1201434:	19bffb1e 	bne	r3,r6,1201424 <__alt_mem_instruction_tcm+0xff201424>
 1201438:	dc000017 	ldw	r16,0(sp)
 120143c:	dec00104 	addi	sp,sp,4
 1201440:	f800283a 	ret
 1201444:	2007883a 	mov	r3,r4
 1201448:	003ff406 	br	120141c <__alt_mem_instruction_tcm+0xff20141c>
 120144c:	2007883a 	mov	r3,r4
 1201450:	003ff306 	br	1201420 <__alt_mem_instruction_tcm+0xff201420>
 1201454:	200d883a 	mov	r6,r4
 1201458:	003ff006 	br	120141c <__alt_mem_instruction_tcm+0xff20141c>

0120145c <memset>:
 120145c:	20c000cc 	andi	r3,r4,3
 1201460:	2005883a 	mov	r2,r4
 1201464:	18004326 	beq	r3,zero,1201574 <memset+0x118>
 1201468:	31ffffc4 	addi	r7,r6,-1
 120146c:	30004026 	beq	r6,zero,1201570 <memset+0x114>
 1201470:	2813883a 	mov	r9,r5
 1201474:	200d883a 	mov	r6,r4
 1201478:	2007883a 	mov	r3,r4
 120147c:	00000406 	br	1201490 <memset+0x34>
 1201480:	3a3fffc4 	addi	r8,r7,-1
 1201484:	31800044 	addi	r6,r6,1
 1201488:	38003926 	beq	r7,zero,1201570 <memset+0x114>
 120148c:	400f883a 	mov	r7,r8
 1201490:	18c00044 	addi	r3,r3,1
 1201494:	32400005 	stb	r9,0(r6)
 1201498:	1a0000cc 	andi	r8,r3,3
 120149c:	403ff81e 	bne	r8,zero,1201480 <__alt_mem_instruction_tcm+0xff201480>
 12014a0:	010000c4 	movi	r4,3
 12014a4:	21c02d2e 	bgeu	r4,r7,120155c <memset+0x100>
 12014a8:	29803fcc 	andi	r6,r5,255
 12014ac:	3008923a 	slli	r4,r6,8
 12014b0:	218cb03a 	or	r6,r4,r6
 12014b4:	3008943a 	slli	r4,r6,16
 12014b8:	218cb03a 	or	r6,r4,r6
 12014bc:	010003c4 	movi	r4,15
 12014c0:	21c0182e 	bgeu	r4,r7,1201524 <memset+0xc8>
 12014c4:	3b3ffc04 	addi	r12,r7,-16
 12014c8:	6018d13a 	srli	r12,r12,4
 12014cc:	1a000104 	addi	r8,r3,4
 12014d0:	1ac00204 	addi	r11,r3,8
 12014d4:	6008913a 	slli	r4,r12,4
 12014d8:	1a800304 	addi	r10,r3,12
 12014dc:	1813883a 	mov	r9,r3
 12014e0:	21000504 	addi	r4,r4,20
 12014e4:	1909883a 	add	r4,r3,r4
 12014e8:	49800015 	stw	r6,0(r9)
 12014ec:	41800015 	stw	r6,0(r8)
 12014f0:	59800015 	stw	r6,0(r11)
 12014f4:	51800015 	stw	r6,0(r10)
 12014f8:	42000404 	addi	r8,r8,16
 12014fc:	4a400404 	addi	r9,r9,16
 1201500:	5ac00404 	addi	r11,r11,16
 1201504:	52800404 	addi	r10,r10,16
 1201508:	413ff71e 	bne	r8,r4,12014e8 <__alt_mem_instruction_tcm+0xff2014e8>
 120150c:	63000044 	addi	r12,r12,1
 1201510:	6018913a 	slli	r12,r12,4
 1201514:	39c003cc 	andi	r7,r7,15
 1201518:	010000c4 	movi	r4,3
 120151c:	1b07883a 	add	r3,r3,r12
 1201520:	21c00e2e 	bgeu	r4,r7,120155c <memset+0x100>
 1201524:	1813883a 	mov	r9,r3
 1201528:	3811883a 	mov	r8,r7
 120152c:	010000c4 	movi	r4,3
 1201530:	49800015 	stw	r6,0(r9)
 1201534:	423fff04 	addi	r8,r8,-4
 1201538:	4a400104 	addi	r9,r9,4
 120153c:	223ffc36 	bltu	r4,r8,1201530 <__alt_mem_instruction_tcm+0xff201530>
 1201540:	393fff04 	addi	r4,r7,-4
 1201544:	2008d0ba 	srli	r4,r4,2
 1201548:	39c000cc 	andi	r7,r7,3
 120154c:	21000044 	addi	r4,r4,1
 1201550:	2109883a 	add	r4,r4,r4
 1201554:	2109883a 	add	r4,r4,r4
 1201558:	1907883a 	add	r3,r3,r4
 120155c:	38000426 	beq	r7,zero,1201570 <memset+0x114>
 1201560:	19cf883a 	add	r7,r3,r7
 1201564:	19400005 	stb	r5,0(r3)
 1201568:	18c00044 	addi	r3,r3,1
 120156c:	19fffd1e 	bne	r3,r7,1201564 <__alt_mem_instruction_tcm+0xff201564>
 1201570:	f800283a 	ret
 1201574:	2007883a 	mov	r3,r4
 1201578:	300f883a 	mov	r7,r6
 120157c:	003fc806 	br	12014a0 <__alt_mem_instruction_tcm+0xff2014a0>

01201580 <_puts_r>:
 1201580:	defff604 	addi	sp,sp,-40
 1201584:	dc000715 	stw	r16,28(sp)
 1201588:	2021883a 	mov	r16,r4
 120158c:	2809883a 	mov	r4,r5
 1201590:	dc400815 	stw	r17,32(sp)
 1201594:	dfc00915 	stw	ra,36(sp)
 1201598:	2823883a 	mov	r17,r5
 120159c:	1201a940 	call	1201a94 <strlen>
 12015a0:	00c048b4 	movhi	r3,290
 12015a4:	18e62a04 	addi	r3,r3,-26456
 12015a8:	18c00017 	ldw	r3,0(r3)
 12015ac:	11000044 	addi	r4,r2,1
 12015b0:	d8800115 	stw	r2,4(sp)
 12015b4:	18c00217 	ldw	r3,8(r3)
 12015b8:	01404874 	movhi	r5,289
 12015bc:	295db204 	addi	r5,r5,30408
 12015c0:	1880030b 	ldhu	r2,12(r3)
 12015c4:	d9400215 	stw	r5,8(sp)
 12015c8:	d9000615 	stw	r4,24(sp)
 12015cc:	01400044 	movi	r5,1
 12015d0:	01000084 	movi	r4,2
 12015d4:	d9000515 	stw	r4,20(sp)
 12015d8:	dc400015 	stw	r17,0(sp)
 12015dc:	d9400315 	stw	r5,12(sp)
 12015e0:	dec00415 	stw	sp,16(sp)
 12015e4:	1108000c 	andi	r4,r2,8192
 12015e8:	2000061e 	bne	r4,zero,1201604 <_puts_r+0x84>
 12015ec:	19401917 	ldw	r5,100(r3)
 12015f0:	0137ffc4 	movi	r4,-8193
 12015f4:	10880014 	ori	r2,r2,8192
 12015f8:	2908703a 	and	r4,r5,r4
 12015fc:	1880030d 	sth	r2,12(r3)
 1201600:	19001915 	stw	r4,100(r3)
 1201604:	81400217 	ldw	r5,8(r16)
 1201608:	8009883a 	mov	r4,r16
 120160c:	d9800404 	addi	r6,sp,16
 1201610:	1203ac40 	call	1203ac4 <__sfvwrite_r>
 1201614:	1000061e 	bne	r2,zero,1201630 <_puts_r+0xb0>
 1201618:	00800284 	movi	r2,10
 120161c:	dfc00917 	ldw	ra,36(sp)
 1201620:	dc400817 	ldw	r17,32(sp)
 1201624:	dc000717 	ldw	r16,28(sp)
 1201628:	dec00a04 	addi	sp,sp,40
 120162c:	f800283a 	ret
 1201630:	00bfffc4 	movi	r2,-1
 1201634:	003ff906 	br	120161c <__alt_mem_instruction_tcm+0xff20161c>

01201638 <puts>:
 1201638:	008048b4 	movhi	r2,290
 120163c:	10a62a04 	addi	r2,r2,-26456
 1201640:	200b883a 	mov	r5,r4
 1201644:	11000017 	ldw	r4,0(r2)
 1201648:	12015801 	jmpi	1201580 <_puts_r>

0120164c <lflush>:
 120164c:	2080030b 	ldhu	r2,12(r4)
 1201650:	00c00244 	movi	r3,9
 1201654:	1080024c 	andi	r2,r2,9
 1201658:	10c00226 	beq	r2,r3,1201664 <lflush+0x18>
 120165c:	0005883a 	mov	r2,zero
 1201660:	f800283a 	ret
 1201664:	12036801 	jmpi	1203680 <fflush>

01201668 <__srefill_r>:
 1201668:	defffd04 	addi	sp,sp,-12
 120166c:	dc400115 	stw	r17,4(sp)
 1201670:	dc000015 	stw	r16,0(sp)
 1201674:	dfc00215 	stw	ra,8(sp)
 1201678:	2023883a 	mov	r17,r4
 120167c:	2821883a 	mov	r16,r5
 1201680:	20000226 	beq	r4,zero,120168c <__srefill_r+0x24>
 1201684:	20800e17 	ldw	r2,56(r4)
 1201688:	10003b26 	beq	r2,zero,1201778 <__srefill_r+0x110>
 120168c:	80c0030b 	ldhu	r3,12(r16)
 1201690:	1908000c 	andi	r4,r3,8192
 1201694:	1805883a 	mov	r2,r3
 1201698:	2000071e 	bne	r4,zero,12016b8 <__srefill_r+0x50>
 120169c:	81001917 	ldw	r4,100(r16)
 12016a0:	18880014 	ori	r2,r3,8192
 12016a4:	00f7ffc4 	movi	r3,-8193
 12016a8:	20c8703a 	and	r4,r4,r3
 12016ac:	8080030d 	sth	r2,12(r16)
 12016b0:	1007883a 	mov	r3,r2
 12016b4:	81001915 	stw	r4,100(r16)
 12016b8:	80000115 	stw	zero,4(r16)
 12016bc:	1100080c 	andi	r4,r2,32
 12016c0:	20004d1e 	bne	r4,zero,12017f8 <__srefill_r+0x190>
 12016c4:	1100010c 	andi	r4,r2,4
 12016c8:	20001e26 	beq	r4,zero,1201744 <__srefill_r+0xdc>
 12016cc:	81400c17 	ldw	r5,48(r16)
 12016d0:	28000826 	beq	r5,zero,12016f4 <__srefill_r+0x8c>
 12016d4:	80801004 	addi	r2,r16,64
 12016d8:	28800226 	beq	r5,r2,12016e4 <__srefill_r+0x7c>
 12016dc:	8809883a 	mov	r4,r17
 12016e0:	12037d40 	call	12037d4 <_free_r>
 12016e4:	80800f17 	ldw	r2,60(r16)
 12016e8:	80000c15 	stw	zero,48(r16)
 12016ec:	80800115 	stw	r2,4(r16)
 12016f0:	10002f1e 	bne	r2,zero,12017b0 <__srefill_r+0x148>
 12016f4:	80800417 	ldw	r2,16(r16)
 12016f8:	10004126 	beq	r2,zero,1201800 <__srefill_r+0x198>
 12016fc:	8080030b 	ldhu	r2,12(r16)
 1201700:	108000cc 	andi	r2,r2,3
 1201704:	10001e1e 	bne	r2,zero,1201780 <__srefill_r+0x118>
 1201708:	81800417 	ldw	r6,16(r16)
 120170c:	80800817 	ldw	r2,32(r16)
 1201710:	81400717 	ldw	r5,28(r16)
 1201714:	81c00517 	ldw	r7,20(r16)
 1201718:	81800015 	stw	r6,0(r16)
 120171c:	8809883a 	mov	r4,r17
 1201720:	103ee83a 	callr	r2
 1201724:	80800115 	stw	r2,4(r16)
 1201728:	00800d0e 	bge	zero,r2,1201760 <__srefill_r+0xf8>
 120172c:	0005883a 	mov	r2,zero
 1201730:	dfc00217 	ldw	ra,8(sp)
 1201734:	dc400117 	ldw	r17,4(sp)
 1201738:	dc000017 	ldw	r16,0(sp)
 120173c:	dec00304 	addi	sp,sp,12
 1201740:	f800283a 	ret
 1201744:	1100040c 	andi	r4,r2,16
 1201748:	20002726 	beq	r4,zero,12017e8 <__srefill_r+0x180>
 120174c:	1080020c 	andi	r2,r2,8
 1201750:	10001b1e 	bne	r2,zero,12017c0 <__srefill_r+0x158>
 1201754:	18c00114 	ori	r3,r3,4
 1201758:	80c0030d 	sth	r3,12(r16)
 120175c:	003fe506 	br	12016f4 <__alt_mem_instruction_tcm+0xff2016f4>
 1201760:	80c0030b 	ldhu	r3,12(r16)
 1201764:	10000d1e 	bne	r2,zero,120179c <__srefill_r+0x134>
 1201768:	18c00814 	ori	r3,r3,32
 120176c:	00bfffc4 	movi	r2,-1
 1201770:	80c0030d 	sth	r3,12(r16)
 1201774:	003fee06 	br	1201730 <__alt_mem_instruction_tcm+0xff201730>
 1201778:	12008d40 	call	12008d4 <__sinit>
 120177c:	003fc306 	br	120168c <__alt_mem_instruction_tcm+0xff20168c>
 1201780:	008048b4 	movhi	r2,290
 1201784:	10a62904 	addi	r2,r2,-26460
 1201788:	11000017 	ldw	r4,0(r2)
 120178c:	01404834 	movhi	r5,288
 1201790:	29459304 	addi	r5,r5,5708
 1201794:	12009240 	call	1200924 <_fwalk>
 1201798:	003fdb06 	br	1201708 <__alt_mem_instruction_tcm+0xff201708>
 120179c:	18c01014 	ori	r3,r3,64
 12017a0:	80000115 	stw	zero,4(r16)
 12017a4:	00bfffc4 	movi	r2,-1
 12017a8:	80c0030d 	sth	r3,12(r16)
 12017ac:	003fe006 	br	1201730 <__alt_mem_instruction_tcm+0xff201730>
 12017b0:	80c00e17 	ldw	r3,56(r16)
 12017b4:	0005883a 	mov	r2,zero
 12017b8:	80c00015 	stw	r3,0(r16)
 12017bc:	003fdc06 	br	1201730 <__alt_mem_instruction_tcm+0xff201730>
 12017c0:	8809883a 	mov	r4,r17
 12017c4:	800b883a 	mov	r5,r16
 12017c8:	12034580 	call	1203458 <_fflush_r>
 12017cc:	10000a1e 	bne	r2,zero,12017f8 <__srefill_r+0x190>
 12017d0:	8080030b 	ldhu	r2,12(r16)
 12017d4:	00fffdc4 	movi	r3,-9
 12017d8:	80000215 	stw	zero,8(r16)
 12017dc:	1886703a 	and	r3,r3,r2
 12017e0:	80000615 	stw	zero,24(r16)
 12017e4:	003fdb06 	br	1201754 <__alt_mem_instruction_tcm+0xff201754>
 12017e8:	00800244 	movi	r2,9
 12017ec:	88800015 	stw	r2,0(r17)
 12017f0:	18c01014 	ori	r3,r3,64
 12017f4:	80c0030d 	sth	r3,12(r16)
 12017f8:	00bfffc4 	movi	r2,-1
 12017fc:	003fcc06 	br	1201730 <__alt_mem_instruction_tcm+0xff201730>
 1201800:	8809883a 	mov	r4,r17
 1201804:	800b883a 	mov	r5,r16
 1201808:	12040d40 	call	12040d4 <__smakebuf_r>
 120180c:	003fbb06 	br	12016fc <__alt_mem_instruction_tcm+0xff2016fc>

01201810 <_sbrk_r>:
 1201810:	defffd04 	addi	sp,sp,-12
 1201814:	dc000015 	stw	r16,0(sp)
 1201818:	040048b4 	movhi	r16,290
 120181c:	dc400115 	stw	r17,4(sp)
 1201820:	84263f04 	addi	r16,r16,-26372
 1201824:	2023883a 	mov	r17,r4
 1201828:	2809883a 	mov	r4,r5
 120182c:	dfc00215 	stw	ra,8(sp)
 1201830:	80000015 	stw	zero,0(r16)
 1201834:	1212dd00 	call	1212dd0 <sbrk>
 1201838:	00ffffc4 	movi	r3,-1
 120183c:	10c00526 	beq	r2,r3,1201854 <_sbrk_r+0x44>
 1201840:	dfc00217 	ldw	ra,8(sp)
 1201844:	dc400117 	ldw	r17,4(sp)
 1201848:	dc000017 	ldw	r16,0(sp)
 120184c:	dec00304 	addi	sp,sp,12
 1201850:	f800283a 	ret
 1201854:	80c00017 	ldw	r3,0(r16)
 1201858:	183ff926 	beq	r3,zero,1201840 <__alt_mem_instruction_tcm+0xff201840>
 120185c:	88c00015 	stw	r3,0(r17)
 1201860:	003ff706 	br	1201840 <__alt_mem_instruction_tcm+0xff201840>

01201864 <sscanf>:
 1201864:	deffe204 	addi	sp,sp,-120
 1201868:	dfc01b15 	stw	ra,108(sp)
 120186c:	dc001a15 	stw	r16,104(sp)
 1201870:	d9801c15 	stw	r6,112(sp)
 1201874:	d9c01d15 	stw	r7,116(sp)
 1201878:	00c08104 	movi	r3,516
 120187c:	2821883a 	mov	r16,r5
 1201880:	d8c0030d 	sth	r3,12(sp)
 1201884:	d9000015 	stw	r4,0(sp)
 1201888:	d9000415 	stw	r4,16(sp)
 120188c:	1201a940 	call	1201a94 <strlen>
 1201890:	00c048b4 	movhi	r3,290
 1201894:	18e62a04 	addi	r3,r3,-26456
 1201898:	d8800115 	stw	r2,4(sp)
 120189c:	d8800515 	stw	r2,20(sp)
 12018a0:	19000017 	ldw	r4,0(r3)
 12018a4:	00804834 	movhi	r2,288
 12018a8:	10866b04 	addi	r2,r2,6572
 12018ac:	d8800815 	stw	r2,32(sp)
 12018b0:	d80b883a 	mov	r5,sp
 12018b4:	800d883a 	mov	r6,r16
 12018b8:	d9c01c04 	addi	r7,sp,112
 12018bc:	00bfffc4 	movi	r2,-1
 12018c0:	d8000c15 	stw	zero,48(sp)
 12018c4:	d8001115 	stw	zero,68(sp)
 12018c8:	d880038d 	sth	r2,14(sp)
 12018cc:	1201b2c0 	call	1201b2c <__ssvfscanf_r>
 12018d0:	dfc01b17 	ldw	ra,108(sp)
 12018d4:	dc001a17 	ldw	r16,104(sp)
 12018d8:	dec01e04 	addi	sp,sp,120
 12018dc:	f800283a 	ret

012018e0 <_sscanf_r>:
 12018e0:	deffe204 	addi	sp,sp,-120
 12018e4:	dc001b15 	stw	r16,108(sp)
 12018e8:	2021883a 	mov	r16,r4
 12018ec:	dfc01c15 	stw	ra,112(sp)
 12018f0:	d9c01d15 	stw	r7,116(sp)
 12018f4:	00808104 	movi	r2,516
 12018f8:	2809883a 	mov	r4,r5
 12018fc:	d9400015 	stw	r5,0(sp)
 1201900:	d9400415 	stw	r5,16(sp)
 1201904:	d9801a15 	stw	r6,104(sp)
 1201908:	d880030d 	sth	r2,12(sp)
 120190c:	1201a940 	call	1201a94 <strlen>
 1201910:	d8800115 	stw	r2,4(sp)
 1201914:	d8800515 	stw	r2,20(sp)
 1201918:	d9801a17 	ldw	r6,104(sp)
 120191c:	00804834 	movhi	r2,288
 1201920:	10866b04 	addi	r2,r2,6572
 1201924:	d8800815 	stw	r2,32(sp)
 1201928:	8009883a 	mov	r4,r16
 120192c:	d80b883a 	mov	r5,sp
 1201930:	d9c01d04 	addi	r7,sp,116
 1201934:	00bfffc4 	movi	r2,-1
 1201938:	d8000c15 	stw	zero,48(sp)
 120193c:	d8001115 	stw	zero,68(sp)
 1201940:	d880038d 	sth	r2,14(sp)
 1201944:	1201b2c0 	call	1201b2c <__ssvfscanf_r>
 1201948:	dfc01c17 	ldw	ra,112(sp)
 120194c:	dc001b17 	ldw	r16,108(sp)
 1201950:	dec01e04 	addi	sp,sp,120
 1201954:	f800283a 	ret

01201958 <__sread>:
 1201958:	defffe04 	addi	sp,sp,-8
 120195c:	dc000015 	stw	r16,0(sp)
 1201960:	2821883a 	mov	r16,r5
 1201964:	2940038f 	ldh	r5,14(r5)
 1201968:	dfc00115 	stw	ra,4(sp)
 120196c:	12046240 	call	1204624 <_read_r>
 1201970:	10000716 	blt	r2,zero,1201990 <__sread+0x38>
 1201974:	80c01417 	ldw	r3,80(r16)
 1201978:	1887883a 	add	r3,r3,r2
 120197c:	80c01415 	stw	r3,80(r16)
 1201980:	dfc00117 	ldw	ra,4(sp)
 1201984:	dc000017 	ldw	r16,0(sp)
 1201988:	dec00204 	addi	sp,sp,8
 120198c:	f800283a 	ret
 1201990:	80c0030b 	ldhu	r3,12(r16)
 1201994:	18fbffcc 	andi	r3,r3,61439
 1201998:	80c0030d 	sth	r3,12(r16)
 120199c:	dfc00117 	ldw	ra,4(sp)
 12019a0:	dc000017 	ldw	r16,0(sp)
 12019a4:	dec00204 	addi	sp,sp,8
 12019a8:	f800283a 	ret

012019ac <__seofread>:
 12019ac:	0005883a 	mov	r2,zero
 12019b0:	f800283a 	ret

012019b4 <__swrite>:
 12019b4:	2880030b 	ldhu	r2,12(r5)
 12019b8:	defffb04 	addi	sp,sp,-20
 12019bc:	dcc00315 	stw	r19,12(sp)
 12019c0:	dc800215 	stw	r18,8(sp)
 12019c4:	dc400115 	stw	r17,4(sp)
 12019c8:	dc000015 	stw	r16,0(sp)
 12019cc:	dfc00415 	stw	ra,16(sp)
 12019d0:	10c0400c 	andi	r3,r2,256
 12019d4:	2821883a 	mov	r16,r5
 12019d8:	2027883a 	mov	r19,r4
 12019dc:	3025883a 	mov	r18,r6
 12019e0:	3823883a 	mov	r17,r7
 12019e4:	18000526 	beq	r3,zero,12019fc <__swrite+0x48>
 12019e8:	2940038f 	ldh	r5,14(r5)
 12019ec:	000d883a 	mov	r6,zero
 12019f0:	01c00084 	movi	r7,2
 12019f4:	12040780 	call	1204078 <_lseek_r>
 12019f8:	8080030b 	ldhu	r2,12(r16)
 12019fc:	8140038f 	ldh	r5,14(r16)
 1201a00:	10bbffcc 	andi	r2,r2,61439
 1201a04:	9809883a 	mov	r4,r19
 1201a08:	900d883a 	mov	r6,r18
 1201a0c:	880f883a 	mov	r7,r17
 1201a10:	8080030d 	sth	r2,12(r16)
 1201a14:	dfc00417 	ldw	ra,16(sp)
 1201a18:	dcc00317 	ldw	r19,12(sp)
 1201a1c:	dc800217 	ldw	r18,8(sp)
 1201a20:	dc400117 	ldw	r17,4(sp)
 1201a24:	dc000017 	ldw	r16,0(sp)
 1201a28:	dec00504 	addi	sp,sp,20
 1201a2c:	12032941 	jmpi	1203294 <_write_r>

01201a30 <__sseek>:
 1201a30:	defffe04 	addi	sp,sp,-8
 1201a34:	dc000015 	stw	r16,0(sp)
 1201a38:	2821883a 	mov	r16,r5
 1201a3c:	2940038f 	ldh	r5,14(r5)
 1201a40:	dfc00115 	stw	ra,4(sp)
 1201a44:	12040780 	call	1204078 <_lseek_r>
 1201a48:	00ffffc4 	movi	r3,-1
 1201a4c:	10c00826 	beq	r2,r3,1201a70 <__sseek+0x40>
 1201a50:	80c0030b 	ldhu	r3,12(r16)
 1201a54:	80801415 	stw	r2,80(r16)
 1201a58:	18c40014 	ori	r3,r3,4096
 1201a5c:	80c0030d 	sth	r3,12(r16)
 1201a60:	dfc00117 	ldw	ra,4(sp)
 1201a64:	dc000017 	ldw	r16,0(sp)
 1201a68:	dec00204 	addi	sp,sp,8
 1201a6c:	f800283a 	ret
 1201a70:	80c0030b 	ldhu	r3,12(r16)
 1201a74:	18fbffcc 	andi	r3,r3,61439
 1201a78:	80c0030d 	sth	r3,12(r16)
 1201a7c:	dfc00117 	ldw	ra,4(sp)
 1201a80:	dc000017 	ldw	r16,0(sp)
 1201a84:	dec00204 	addi	sp,sp,8
 1201a88:	f800283a 	ret

01201a8c <__sclose>:
 1201a8c:	2940038f 	ldh	r5,14(r5)
 1201a90:	12032f01 	jmpi	12032f0 <_close_r>

01201a94 <strlen>:
 1201a94:	208000cc 	andi	r2,r4,3
 1201a98:	10002026 	beq	r2,zero,1201b1c <strlen+0x88>
 1201a9c:	20800007 	ldb	r2,0(r4)
 1201aa0:	10002026 	beq	r2,zero,1201b24 <strlen+0x90>
 1201aa4:	2005883a 	mov	r2,r4
 1201aa8:	00000206 	br	1201ab4 <strlen+0x20>
 1201aac:	10c00007 	ldb	r3,0(r2)
 1201ab0:	18001826 	beq	r3,zero,1201b14 <strlen+0x80>
 1201ab4:	10800044 	addi	r2,r2,1
 1201ab8:	10c000cc 	andi	r3,r2,3
 1201abc:	183ffb1e 	bne	r3,zero,1201aac <__alt_mem_instruction_tcm+0xff201aac>
 1201ac0:	10c00017 	ldw	r3,0(r2)
 1201ac4:	01ffbff4 	movhi	r7,65279
 1201ac8:	39ffbfc4 	addi	r7,r7,-257
 1201acc:	00ca303a 	nor	r5,zero,r3
 1201ad0:	01a02074 	movhi	r6,32897
 1201ad4:	19c7883a 	add	r3,r3,r7
 1201ad8:	31a02004 	addi	r6,r6,-32640
 1201adc:	1946703a 	and	r3,r3,r5
 1201ae0:	1986703a 	and	r3,r3,r6
 1201ae4:	1800091e 	bne	r3,zero,1201b0c <strlen+0x78>
 1201ae8:	10800104 	addi	r2,r2,4
 1201aec:	10c00017 	ldw	r3,0(r2)
 1201af0:	19cb883a 	add	r5,r3,r7
 1201af4:	00c6303a 	nor	r3,zero,r3
 1201af8:	28c6703a 	and	r3,r5,r3
 1201afc:	1986703a 	and	r3,r3,r6
 1201b00:	183ff926 	beq	r3,zero,1201ae8 <__alt_mem_instruction_tcm+0xff201ae8>
 1201b04:	00000106 	br	1201b0c <strlen+0x78>
 1201b08:	10800044 	addi	r2,r2,1
 1201b0c:	10c00007 	ldb	r3,0(r2)
 1201b10:	183ffd1e 	bne	r3,zero,1201b08 <__alt_mem_instruction_tcm+0xff201b08>
 1201b14:	1105c83a 	sub	r2,r2,r4
 1201b18:	f800283a 	ret
 1201b1c:	2005883a 	mov	r2,r4
 1201b20:	003fe706 	br	1201ac0 <__alt_mem_instruction_tcm+0xff201ac0>
 1201b24:	0005883a 	mov	r2,zero
 1201b28:	f800283a 	ret

01201b2c <__ssvfscanf_r>:
 1201b2c:	deff4b04 	addi	sp,sp,-724
 1201b30:	df00b315 	stw	fp,716(sp)
 1201b34:	dd80b115 	stw	r22,708(sp)
 1201b38:	dc40ac15 	stw	r17,688(sp)
 1201b3c:	2839883a 	mov	fp,r5
 1201b40:	dfc0b415 	stw	ra,720(sp)
 1201b44:	ddc0b215 	stw	r23,712(sp)
 1201b48:	dd40b015 	stw	r21,704(sp)
 1201b4c:	dd00af15 	stw	r20,700(sp)
 1201b50:	dcc0ae15 	stw	r19,696(sp)
 1201b54:	dc80ad15 	stw	r18,692(sp)
 1201b58:	dc00ab15 	stw	r16,684(sp)
 1201b5c:	202d883a 	mov	r22,r4
 1201b60:	3023883a 	mov	r17,r6
 1201b64:	d9c09c15 	stw	r7,624(sp)
 1201b68:	12008e40 	call	12008e4 <__sfp_lock_acquire>
 1201b6c:	e080030b 	ldhu	r2,12(fp)
 1201b70:	10c8000c 	andi	r3,r2,8192
 1201b74:	1800061e 	bne	r3,zero,1201b90 <__ssvfscanf_r+0x64>
 1201b78:	e1001917 	ldw	r4,100(fp)
 1201b7c:	00f7ffc4 	movi	r3,-8193
 1201b80:	10880014 	ori	r2,r2,8192
 1201b84:	20c6703a 	and	r3,r4,r3
 1201b88:	e080030d 	sth	r2,12(fp)
 1201b8c:	e0c01915 	stw	r3,100(fp)
 1201b90:	88800007 	ldb	r2,0(r17)
 1201b94:	0029883a 	mov	r20,zero
 1201b98:	054048b4 	movhi	r21,290
 1201b9c:	d800a015 	stw	zero,640(sp)
 1201ba0:	d8009e15 	stw	zero,632(sp)
 1201ba4:	d8009f15 	stw	zero,636(sp)
 1201ba8:	d8809b15 	stw	r2,620(sp)
 1201bac:	ad662d04 	addi	r21,r21,-26444
 1201bb0:	a027883a 	mov	r19,r20
 1201bb4:	e02f883a 	mov	r23,fp
 1201bb8:	8c800044 	addi	r18,r17,1
 1201bbc:	10001e26 	beq	r2,zero,1201c38 <__ssvfscanf_r+0x10c>
 1201bc0:	a9000017 	ldw	r4,0(r21)
 1201bc4:	2087883a 	add	r3,r4,r2
 1201bc8:	18c00043 	ldbu	r3,1(r3)
 1201bcc:	18c0020c 	andi	r3,r3,8
 1201bd0:	18001c26 	beq	r3,zero,1201c44 <__ssvfscanf_r+0x118>
 1201bd4:	b8800117 	ldw	r2,4(r23)
 1201bd8:	00800e0e 	bge	zero,r2,1201c14 <__ssvfscanf_r+0xe8>
 1201bdc:	b8c00017 	ldw	r3,0(r23)
 1201be0:	a9000017 	ldw	r4,0(r21)
 1201be4:	18800003 	ldbu	r2,0(r3)
 1201be8:	2085883a 	add	r2,r4,r2
 1201bec:	10800043 	ldbu	r2,1(r2)
 1201bf0:	1080020c 	andi	r2,r2,8
 1201bf4:	10000b26 	beq	r2,zero,1201c24 <__ssvfscanf_r+0xf8>
 1201bf8:	b8800117 	ldw	r2,4(r23)
 1201bfc:	18c00044 	addi	r3,r3,1
 1201c00:	b8c00015 	stw	r3,0(r23)
 1201c04:	10bfffc4 	addi	r2,r2,-1
 1201c08:	b8800115 	stw	r2,4(r23)
 1201c0c:	9cc00044 	addi	r19,r19,1
 1201c10:	00bff216 	blt	zero,r2,1201bdc <__alt_mem_instruction_tcm+0xff201bdc>
 1201c14:	b009883a 	mov	r4,r22
 1201c18:	b80b883a 	mov	r5,r23
 1201c1c:	12071b40 	call	12071b4 <__ssrefill_r>
 1201c20:	103fee26 	beq	r2,zero,1201bdc <__alt_mem_instruction_tcm+0xff201bdc>
 1201c24:	9023883a 	mov	r17,r18
 1201c28:	88800007 	ldb	r2,0(r17)
 1201c2c:	8c800044 	addi	r18,r17,1
 1201c30:	d8809b15 	stw	r2,620(sp)
 1201c34:	103fe21e 	bne	r2,zero,1201bc0 <__alt_mem_instruction_tcm+0xff201bc0>
 1201c38:	12008e80 	call	12008e8 <__sfp_lock_release>
 1201c3c:	d8809f17 	ldw	r2,636(sp)
 1201c40:	00021906 	br	12024a8 <__ssvfscanf_r+0x97c>
 1201c44:	00c00944 	movi	r3,37
 1201c48:	10c0881e 	bne	r2,r3,1201e6c <__ssvfscanf_r+0x340>
 1201c4c:	88c00043 	ldbu	r3,1(r17)
 1201c50:	0021883a 	mov	r16,zero
 1201c54:	0023883a 	mov	r17,zero
 1201c58:	01801e04 	movi	r6,120
 1201c5c:	01c01b04 	movi	r7,108
 1201c60:	18803fcc 	andi	r2,r3,255
 1201c64:	91400044 	addi	r5,r18,1
 1201c68:	3081ef36 	bltu	r6,r2,1202428 <__ssvfscanf_r+0x8fc>
 1201c6c:	100490ba 	slli	r2,r2,2
 1201c70:	02004834 	movhi	r8,288
 1201c74:	42072104 	addi	r8,r8,7300
 1201c78:	1205883a 	add	r2,r2,r8
 1201c7c:	10800017 	ldw	r2,0(r2)
 1201c80:	1000683a 	jmp	r2
 1201c84:	012024a0 	cmpeqi	r4,zero,-32622
 1201c88:	01202428 	cmpgeui	r4,zero,32912
 1201c8c:	01202428 	cmpgeui	r4,zero,32912
 1201c90:	01202428 	cmpgeui	r4,zero,32912
 1201c94:	01202428 	cmpgeui	r4,zero,32912
 1201c98:	01202428 	cmpgeui	r4,zero,32912
 1201c9c:	01202428 	cmpgeui	r4,zero,32912
 1201ca0:	01202428 	cmpgeui	r4,zero,32912
 1201ca4:	01202428 	cmpgeui	r4,zero,32912
 1201ca8:	01202428 	cmpgeui	r4,zero,32912
 1201cac:	01202428 	cmpgeui	r4,zero,32912
 1201cb0:	01202428 	cmpgeui	r4,zero,32912
 1201cb4:	01202428 	cmpgeui	r4,zero,32912
 1201cb8:	01202428 	cmpgeui	r4,zero,32912
 1201cbc:	01202428 	cmpgeui	r4,zero,32912
 1201cc0:	01202428 	cmpgeui	r4,zero,32912
 1201cc4:	01202428 	cmpgeui	r4,zero,32912
 1201cc8:	01202428 	cmpgeui	r4,zero,32912
 1201ccc:	01202428 	cmpgeui	r4,zero,32912
 1201cd0:	01202428 	cmpgeui	r4,zero,32912
 1201cd4:	01202428 	cmpgeui	r4,zero,32912
 1201cd8:	01202428 	cmpgeui	r4,zero,32912
 1201cdc:	01202428 	cmpgeui	r4,zero,32912
 1201ce0:	01202428 	cmpgeui	r4,zero,32912
 1201ce4:	01202428 	cmpgeui	r4,zero,32912
 1201ce8:	01202428 	cmpgeui	r4,zero,32912
 1201cec:	01202428 	cmpgeui	r4,zero,32912
 1201cf0:	01202428 	cmpgeui	r4,zero,32912
 1201cf4:	01202428 	cmpgeui	r4,zero,32912
 1201cf8:	01202428 	cmpgeui	r4,zero,32912
 1201cfc:	01202428 	cmpgeui	r4,zero,32912
 1201d00:	01202428 	cmpgeui	r4,zero,32912
 1201d04:	01202428 	cmpgeui	r4,zero,32912
 1201d08:	01202428 	cmpgeui	r4,zero,32912
 1201d0c:	01202428 	cmpgeui	r4,zero,32912
 1201d10:	01202428 	cmpgeui	r4,zero,32912
 1201d14:	01202428 	cmpgeui	r4,zero,32912
 1201d18:	01201e68 	cmpgeui	r4,zero,32889
 1201d1c:	01202428 	cmpgeui	r4,zero,32912
 1201d20:	01202428 	cmpgeui	r4,zero,32912
 1201d24:	01202428 	cmpgeui	r4,zero,32912
 1201d28:	01202428 	cmpgeui	r4,zero,32912
 1201d2c:	01202410 	cmplti	r4,zero,-32624
 1201d30:	01202428 	cmpgeui	r4,zero,32912
 1201d34:	01202428 	cmpgeui	r4,zero,32912
 1201d38:	01202428 	cmpgeui	r4,zero,32912
 1201d3c:	01202428 	cmpgeui	r4,zero,32912
 1201d40:	01202428 	cmpgeui	r4,zero,32912
 1201d44:	01202520 	cmpeqi	r4,zero,-32620
 1201d48:	01202520 	cmpeqi	r4,zero,-32620
 1201d4c:	01202520 	cmpeqi	r4,zero,-32620
 1201d50:	01202520 	cmpeqi	r4,zero,-32620
 1201d54:	01202520 	cmpeqi	r4,zero,-32620
 1201d58:	01202520 	cmpeqi	r4,zero,-32620
 1201d5c:	01202520 	cmpeqi	r4,zero,-32620
 1201d60:	01202520 	cmpeqi	r4,zero,-32620
 1201d64:	01202520 	cmpeqi	r4,zero,-32620
 1201d68:	01202520 	cmpeqi	r4,zero,-32620
 1201d6c:	01202428 	cmpgeui	r4,zero,32912
 1201d70:	01202428 	cmpgeui	r4,zero,32912
 1201d74:	01202428 	cmpgeui	r4,zero,32912
 1201d78:	01202428 	cmpgeui	r4,zero,32912
 1201d7c:	01202428 	cmpgeui	r4,zero,32912
 1201d80:	01202428 	cmpgeui	r4,zero,32912
 1201d84:	01202428 	cmpgeui	r4,zero,32912
 1201d88:	01202428 	cmpgeui	r4,zero,32912
 1201d8c:	01202428 	cmpgeui	r4,zero,32912
 1201d90:	01202428 	cmpgeui	r4,zero,32912
 1201d94:	012024f8 	rdprs	r4,zero,-32621
 1201d98:	012024e8 	cmpgeui	r4,zero,32915
 1201d9c:	01202428 	cmpgeui	r4,zero,32912
 1201da0:	012024e8 	cmpgeui	r4,zero,32915
 1201da4:	01202428 	cmpgeui	r4,zero,32912
 1201da8:	01202428 	cmpgeui	r4,zero,32912
 1201dac:	01202428 	cmpgeui	r4,zero,32912
 1201db0:	01202428 	cmpgeui	r4,zero,32912
 1201db4:	012024d8 	cmpnei	r4,zero,-32621
 1201db8:	01202428 	cmpgeui	r4,zero,32912
 1201dbc:	01202428 	cmpgeui	r4,zero,32912
 1201dc0:	01202664 	muli	r4,zero,-32615
 1201dc4:	01202428 	cmpgeui	r4,zero,32912
 1201dc8:	01202428 	cmpgeui	r4,zero,32912
 1201dcc:	01202428 	cmpgeui	r4,zero,32912
 1201dd0:	01202428 	cmpgeui	r4,zero,32912
 1201dd4:	01202428 	cmpgeui	r4,zero,32912
 1201dd8:	01202428 	cmpgeui	r4,zero,32912
 1201ddc:	01202428 	cmpgeui	r4,zero,32912
 1201de0:	01202428 	cmpgeui	r4,zero,32912
 1201de4:	01202658 	cmpnei	r4,zero,-32615
 1201de8:	01202428 	cmpgeui	r4,zero,32912
 1201dec:	01202428 	cmpgeui	r4,zero,32912
 1201df0:	0120263c 	xorhi	r4,zero,32920
 1201df4:	01202428 	cmpgeui	r4,zero,32912
 1201df8:	01202428 	cmpgeui	r4,zero,32912
 1201dfc:	01202428 	cmpgeui	r4,zero,32912
 1201e00:	01202428 	cmpgeui	r4,zero,32912
 1201e04:	01202428 	cmpgeui	r4,zero,32912
 1201e08:	01202428 	cmpgeui	r4,zero,32912
 1201e0c:	01202428 	cmpgeui	r4,zero,32912
 1201e10:	01202628 	cmpgeui	r4,zero,32920
 1201e14:	01202620 	cmpeqi	r4,zero,-32616
 1201e18:	012024e8 	cmpgeui	r4,zero,32915
 1201e1c:	012024e8 	cmpgeui	r4,zero,32915
 1201e20:	012024e8 	cmpgeui	r4,zero,32915
 1201e24:	01202610 	cmplti	r4,zero,-32616
 1201e28:	01201ea4 	muli	r4,zero,-32646
 1201e2c:	01202428 	cmpgeui	r4,zero,32912
 1201e30:	01202428 	cmpgeui	r4,zero,32912
 1201e34:	012025f0 	cmpltui	r4,zero,32919
 1201e38:	01202428 	cmpgeui	r4,zero,32912
 1201e3c:	012025c4 	movi	r4,-32617
 1201e40:	012025a0 	cmpeqi	r4,zero,-32618
 1201e44:	01202578 	rdprs	r4,zero,-32619
 1201e48:	01202428 	cmpgeui	r4,zero,32912
 1201e4c:	01202428 	cmpgeui	r4,zero,32912
 1201e50:	01202568 	cmpgeui	r4,zero,32917
 1201e54:	01202428 	cmpgeui	r4,zero,32912
 1201e58:	01202544 	movi	r4,-32619
 1201e5c:	01202428 	cmpgeui	r4,zero,32912
 1201e60:	01202428 	cmpgeui	r4,zero,32912
 1201e64:	01202658 	cmpnei	r4,zero,-32615
 1201e68:	2825883a 	mov	r18,r5
 1201e6c:	b8800117 	ldw	r2,4(r23)
 1201e70:	00844f0e 	bge	zero,r2,1202fb0 <__ssvfscanf_r+0x1484>
 1201e74:	b8800017 	ldw	r2,0(r23)
 1201e78:	90ffffc3 	ldbu	r3,-1(r18)
 1201e7c:	11000003 	ldbu	r4,0(r2)
 1201e80:	20ff6d1e 	bne	r4,r3,1201c38 <__alt_mem_instruction_tcm+0xff201c38>
 1201e84:	b8c00117 	ldw	r3,4(r23)
 1201e88:	10800044 	addi	r2,r2,1
 1201e8c:	b8800015 	stw	r2,0(r23)
 1201e90:	18bfffc4 	addi	r2,r3,-1
 1201e94:	b8800115 	stw	r2,4(r23)
 1201e98:	9cc00044 	addi	r19,r19,1
 1201e9c:	9023883a 	mov	r17,r18
 1201ea0:	003f6106 	br	1201c28 <__alt_mem_instruction_tcm+0xff201c28>
 1201ea4:	02c04834 	movhi	r11,288
 1201ea8:	5ad94904 	addi	r11,r11,25892
 1201eac:	8839883a 	mov	fp,r17
 1201eb0:	2825883a 	mov	r18,r5
 1201eb4:	dac0a015 	stw	r11,640(sp)
 1201eb8:	d8009e15 	stw	zero,632(sp)
 1201ebc:	050000c4 	movi	r20,3
 1201ec0:	b8800117 	ldw	r2,4(r23)
 1201ec4:	00816a0e 	bge	zero,r2,1202470 <__ssvfscanf_r+0x944>
 1201ec8:	8080100c 	andi	r2,r16,64
 1201ecc:	10007a26 	beq	r2,zero,12020b8 <__ssvfscanf_r+0x58c>
 1201ed0:	00800084 	movi	r2,2
 1201ed4:	a0820a26 	beq	r20,r2,1202700 <__ssvfscanf_r+0xbd4>
 1201ed8:	1501e70e 	bge	r2,r20,1202678 <__ssvfscanf_r+0xb4c>
 1201edc:	008000c4 	movi	r2,3
 1201ee0:	a0823f26 	beq	r20,r2,12027e0 <__ssvfscanf_r+0xcb4>
 1201ee4:	00800104 	movi	r2,4
 1201ee8:	a082221e 	bne	r20,r2,1202774 <__ssvfscanf_r+0xc48>
 1201eec:	88bfffc4 	addi	r2,r17,-1
 1201ef0:	01005704 	movi	r4,348
 1201ef4:	20830e2e 	bgeu	r4,r2,1202b30 <__ssvfscanf_r+0x1004>
 1201ef8:	8c7fa8c4 	addi	r17,r17,-349
 1201efc:	dc40a315 	stw	r17,652(sp)
 1201f00:	07005744 	movi	fp,349
 1201f04:	8401e014 	ori	r16,r16,1920
 1201f08:	0023883a 	mov	r17,zero
 1201f0c:	d9c00104 	addi	r7,sp,4
 1201f10:	9011883a 	mov	r8,r18
 1201f14:	d800a415 	stw	zero,656(sp)
 1201f18:	8825883a 	mov	r18,r17
 1201f1c:	d800a215 	stw	zero,648(sp)
 1201f20:	8023883a 	mov	r17,r16
 1201f24:	d8009d15 	stw	zero,628(sp)
 1201f28:	e021883a 	mov	r16,fp
 1201f2c:	d800a115 	stw	zero,644(sp)
 1201f30:	0029883a 	mov	r20,zero
 1201f34:	02c01384 	movi	r11,78
 1201f38:	00fe1fc4 	movi	r3,-1921
 1201f3c:	3839883a 	mov	fp,r7
 1201f40:	b9800017 	ldw	r6,0(r23)
 1201f44:	31000003 	ldbu	r4,0(r6)
 1201f48:	20bff544 	addi	r2,r4,-43
 1201f4c:	10803fcc 	andi	r2,r2,255
 1201f50:	58807b36 	bltu	r11,r2,1202140 <__ssvfscanf_r+0x614>
 1201f54:	100490ba 	slli	r2,r2,2
 1201f58:	01404834 	movhi	r5,288
 1201f5c:	2947db04 	addi	r5,r5,8044
 1201f60:	1145883a 	add	r2,r2,r5
 1201f64:	10800017 	ldw	r2,0(r2)
 1201f68:	1000683a 	jmp	r2
 1201f6c:	012022d0 	cmplti	r4,zero,-32629
 1201f70:	01202140 	call	120214 <__alt_mem_ext_flash_ctl-0x6dfdec>
 1201f74:	012022d0 	cmplti	r4,zero,-32629
 1201f78:	012022b4 	movhi	r4,32906
 1201f7c:	01202140 	call	120214 <__alt_mem_ext_flash_ctl-0x6dfdec>
 1201f80:	012023dc 	xori	r4,zero,32911
 1201f84:	012020f8 	rdprs	r4,zero,-32637
 1201f88:	012020f8 	rdprs	r4,zero,-32637
 1201f8c:	012020f8 	rdprs	r4,zero,-32637
 1201f90:	012020f8 	rdprs	r4,zero,-32637
 1201f94:	012020f8 	rdprs	r4,zero,-32637
 1201f98:	012020f8 	rdprs	r4,zero,-32637
 1201f9c:	012020f8 	rdprs	r4,zero,-32637
 1201fa0:	012020f8 	rdprs	r4,zero,-32637
 1201fa4:	012020f8 	rdprs	r4,zero,-32637
 1201fa8:	01202140 	call	120214 <__alt_mem_ext_flash_ctl-0x6dfdec>
 1201fac:	01202140 	call	120214 <__alt_mem_ext_flash_ctl-0x6dfdec>
 1201fb0:	01202140 	call	120214 <__alt_mem_ext_flash_ctl-0x6dfdec>
 1201fb4:	01202140 	call	120214 <__alt_mem_ext_flash_ctl-0x6dfdec>
 1201fb8:	01202140 	call	120214 <__alt_mem_ext_flash_ctl-0x6dfdec>
 1201fbc:	01202140 	call	120214 <__alt_mem_ext_flash_ctl-0x6dfdec>
 1201fc0:	01202140 	call	120214 <__alt_mem_ext_flash_ctl-0x6dfdec>
 1201fc4:	012023cc 	andi	r4,zero,32911
 1201fc8:	01202140 	call	120214 <__alt_mem_ext_flash_ctl-0x6dfdec>
 1201fcc:	01202140 	call	120214 <__alt_mem_ext_flash_ctl-0x6dfdec>
 1201fd0:	01202140 	call	120214 <__alt_mem_ext_flash_ctl-0x6dfdec>
 1201fd4:	01202384 	movi	r4,-32626
 1201fd8:	01202368 	cmpgeui	r4,zero,32909
 1201fdc:	01202140 	call	120214 <__alt_mem_ext_flash_ctl-0x6dfdec>
 1201fe0:	01202140 	call	120214 <__alt_mem_ext_flash_ctl-0x6dfdec>
 1201fe4:	01202330 	cmpltui	r4,zero,32908
 1201fe8:	01202140 	call	120214 <__alt_mem_ext_flash_ctl-0x6dfdec>
 1201fec:	01202140 	call	120214 <__alt_mem_ext_flash_ctl-0x6dfdec>
 1201ff0:	01202140 	call	120214 <__alt_mem_ext_flash_ctl-0x6dfdec>
 1201ff4:	01202140 	call	120214 <__alt_mem_ext_flash_ctl-0x6dfdec>
 1201ff8:	01202300 	call	120230 <__alt_mem_ext_flash_ctl-0x6dfdd0>
 1201ffc:	01202140 	call	120214 <__alt_mem_ext_flash_ctl-0x6dfdec>
 1202000:	01202140 	call	120214 <__alt_mem_ext_flash_ctl-0x6dfdec>
 1202004:	01202140 	call	120214 <__alt_mem_ext_flash_ctl-0x6dfdec>
 1202008:	01202140 	call	120214 <__alt_mem_ext_flash_ctl-0x6dfdec>
 120200c:	01202140 	call	120214 <__alt_mem_ext_flash_ctl-0x6dfdec>
 1202010:	012022e4 	muli	r4,zero,-32629
 1202014:	01202140 	call	120214 <__alt_mem_ext_flash_ctl-0x6dfdec>
 1202018:	01202140 	call	120214 <__alt_mem_ext_flash_ctl-0x6dfdec>
 120201c:	01202140 	call	120214 <__alt_mem_ext_flash_ctl-0x6dfdec>
 1202020:	01202140 	call	120214 <__alt_mem_ext_flash_ctl-0x6dfdec>
 1202024:	01202298 	cmpnei	r4,zero,-32630
 1202028:	01202140 	call	120214 <__alt_mem_ext_flash_ctl-0x6dfdec>
 120202c:	01202140 	call	120214 <__alt_mem_ext_flash_ctl-0x6dfdec>
 1202030:	01202140 	call	120214 <__alt_mem_ext_flash_ctl-0x6dfdec>
 1202034:	01202140 	call	120214 <__alt_mem_ext_flash_ctl-0x6dfdec>
 1202038:	01202140 	call	120214 <__alt_mem_ext_flash_ctl-0x6dfdec>
 120203c:	01202140 	call	120214 <__alt_mem_ext_flash_ctl-0x6dfdec>
 1202040:	01202140 	call	120214 <__alt_mem_ext_flash_ctl-0x6dfdec>
 1202044:	012023cc 	andi	r4,zero,32911
 1202048:	01202140 	call	120214 <__alt_mem_ext_flash_ctl-0x6dfdec>
 120204c:	01202140 	call	120214 <__alt_mem_ext_flash_ctl-0x6dfdec>
 1202050:	01202140 	call	120214 <__alt_mem_ext_flash_ctl-0x6dfdec>
 1202054:	01202384 	movi	r4,-32626
 1202058:	01202368 	cmpgeui	r4,zero,32909
 120205c:	01202140 	call	120214 <__alt_mem_ext_flash_ctl-0x6dfdec>
 1202060:	01202140 	call	120214 <__alt_mem_ext_flash_ctl-0x6dfdec>
 1202064:	01202330 	cmpltui	r4,zero,32908
 1202068:	01202140 	call	120214 <__alt_mem_ext_flash_ctl-0x6dfdec>
 120206c:	01202140 	call	120214 <__alt_mem_ext_flash_ctl-0x6dfdec>
 1202070:	01202140 	call	120214 <__alt_mem_ext_flash_ctl-0x6dfdec>
 1202074:	01202140 	call	120214 <__alt_mem_ext_flash_ctl-0x6dfdec>
 1202078:	01202300 	call	120230 <__alt_mem_ext_flash_ctl-0x6dfdd0>
 120207c:	01202140 	call	120214 <__alt_mem_ext_flash_ctl-0x6dfdec>
 1202080:	01202140 	call	120214 <__alt_mem_ext_flash_ctl-0x6dfdec>
 1202084:	01202140 	call	120214 <__alt_mem_ext_flash_ctl-0x6dfdec>
 1202088:	01202140 	call	120214 <__alt_mem_ext_flash_ctl-0x6dfdec>
 120208c:	01202140 	call	120214 <__alt_mem_ext_flash_ctl-0x6dfdec>
 1202090:	012022e4 	muli	r4,zero,-32629
 1202094:	01202140 	call	120214 <__alt_mem_ext_flash_ctl-0x6dfdec>
 1202098:	01202140 	call	120214 <__alt_mem_ext_flash_ctl-0x6dfdec>
 120209c:	01202140 	call	120214 <__alt_mem_ext_flash_ctl-0x6dfdec>
 12020a0:	01202140 	call	120214 <__alt_mem_ext_flash_ctl-0x6dfdec>
 12020a4:	01202298 	cmpnei	r4,zero,-32630
 12020a8:	b009883a 	mov	r4,r22
 12020ac:	b80b883a 	mov	r5,r23
 12020b0:	12071b40 	call	12071b4 <__ssrefill_r>
 12020b4:	1000f21e 	bne	r2,zero,1202480 <__ssvfscanf_r+0x954>
 12020b8:	a9400017 	ldw	r5,0(r21)
 12020bc:	b9000017 	ldw	r4,0(r23)
 12020c0:	00000206 	br	12020cc <__ssvfscanf_r+0x5a0>
 12020c4:	21000044 	addi	r4,r4,1
 12020c8:	b9000015 	stw	r4,0(r23)
 12020cc:	20800003 	ldbu	r2,0(r4)
 12020d0:	2885883a 	add	r2,r5,r2
 12020d4:	10800043 	ldbu	r2,1(r2)
 12020d8:	1080020c 	andi	r2,r2,8
 12020dc:	103f7c26 	beq	r2,zero,1201ed0 <__alt_mem_instruction_tcm+0xff201ed0>
 12020e0:	b8800117 	ldw	r2,4(r23)
 12020e4:	9cc00044 	addi	r19,r19,1
 12020e8:	10bfffc4 	addi	r2,r2,-1
 12020ec:	b8800115 	stw	r2,4(r23)
 12020f0:	00bff416 	blt	zero,r2,12020c4 <__alt_mem_instruction_tcm+0xff2020c4>
 12020f4:	003fec06 	br	12020a8 <__alt_mem_instruction_tcm+0xff2020a8>
 12020f8:	90803fcc 	andi	r2,r18,255
 12020fc:	1080201c 	xori	r2,r2,128
 1202100:	10bfe004 	addi	r2,r2,-128
 1202104:	a085883a 	add	r2,r20,r2
 1202108:	10000d1e 	bne	r2,zero,1202140 <__ssvfscanf_r+0x614>
 120210c:	00bf9fc4 	movi	r2,-385
 1202110:	88a2703a 	and	r17,r17,r2
 1202114:	e1000005 	stb	r4,0(fp)
 1202118:	e7000044 	addi	fp,fp,1
 120211c:	b8800117 	ldw	r2,4(r23)
 1202120:	843fffc4 	addi	r16,r16,-1
 1202124:	9cc00044 	addi	r19,r19,1
 1202128:	10bfffc4 	addi	r2,r2,-1
 120212c:	b8800115 	stw	r2,4(r23)
 1202130:	00826e0e 	bge	zero,r2,1202aec <__ssvfscanf_r+0xfc0>
 1202134:	31800044 	addi	r6,r6,1
 1202138:	b9800015 	stw	r6,0(r23)
 120213c:	803f801e 	bne	r16,zero,1201f40 <__alt_mem_instruction_tcm+0xff201f40>
 1202140:	d8c09d17 	ldw	r3,628(sp)
 1202144:	8821883a 	mov	r16,r17
 1202148:	e00f883a 	mov	r7,fp
 120214c:	9023883a 	mov	r17,r18
 1202150:	4025883a 	mov	r18,r8
 1202154:	1802711e 	bne	r3,zero,1202b1c <__ssvfscanf_r+0xff0>
 1202158:	a33fffc4 	addi	r12,r20,-1
 120215c:	00800044 	movi	r2,1
 1202160:	1304262e 	bgeu	r2,r12,12031fc <__ssvfscanf_r+0x16d0>
 1202164:	88803fcc 	andi	r2,r17,255
 1202168:	1080201c 	xori	r2,r2,128
 120216c:	10bfe004 	addi	r2,r2,-128
 1202170:	10ffffc4 	addi	r3,r2,-1
 1202174:	01000184 	movi	r4,6
 1202178:	20c01336 	bltu	r4,r3,12021c8 <__ssvfscanf_r+0x69c>
 120217c:	00c00084 	movi	r3,2
 1202180:	18842a0e 	bge	r3,r2,120322c <__ssvfscanf_r+0x1700>
 1202184:	050000c4 	movi	r20,3
 1202188:	8839883a 	mov	fp,r17
 120218c:	15000e26 	beq	r2,r20,12021c8 <__ssvfscanf_r+0x69c>
 1202190:	3823883a 	mov	r17,r7
 1202194:	99e7c83a 	sub	r19,r19,r7
 1202198:	8c7fffc4 	addi	r17,r17,-1
 120219c:	89400007 	ldb	r5,0(r17)
 12021a0:	b009883a 	mov	r4,r22
 12021a4:	b80d883a 	mov	r6,r23
 12021a8:	12070bc0 	call	12070bc <_sungetc_r>
 12021ac:	e0bfffc4 	addi	r2,fp,-1
 12021b0:	10c03fcc 	andi	r3,r2,255
 12021b4:	8cd3883a 	add	r9,r17,r19
 12021b8:	1039883a 	mov	fp,r2
 12021bc:	a0fff636 	bltu	r20,r3,1202198 <__alt_mem_instruction_tcm+0xff202198>
 12021c0:	4827883a 	mov	r19,r9
 12021c4:	880f883a 	mov	r7,r17
 12021c8:	8080400c 	andi	r2,r16,256
 12021cc:	10001626 	beq	r2,zero,1202228 <__ssvfscanf_r+0x6fc>
 12021d0:	8081000c 	andi	r2,r16,1024
 12021d4:	1004211e 	bne	r2,zero,120325c <__ssvfscanf_r+0x1730>
 12021d8:	397fffc7 	ldb	r5,-1(r7)
 12021dc:	00801944 	movi	r2,101
 12021e0:	3c7fffc4 	addi	r17,r7,-1
 12021e4:	9d3fffc4 	addi	r20,r19,-1
 12021e8:	28800a26 	beq	r5,r2,1202214 <__ssvfscanf_r+0x6e8>
 12021ec:	00801144 	movi	r2,69
 12021f0:	28800826 	beq	r5,r2,1202214 <__ssvfscanf_r+0x6e8>
 12021f4:	b009883a 	mov	r4,r22
 12021f8:	b80d883a 	mov	r6,r23
 12021fc:	d9c0a815 	stw	r7,672(sp)
 1202200:	12070bc0 	call	12070bc <_sungetc_r>
 1202204:	d9c0a817 	ldw	r7,672(sp)
 1202208:	9d3fff84 	addi	r20,r19,-2
 120220c:	397fff87 	ldb	r5,-2(r7)
 1202210:	3c7fff84 	addi	r17,r7,-2
 1202214:	b009883a 	mov	r4,r22
 1202218:	b80d883a 	mov	r6,r23
 120221c:	12070bc0 	call	12070bc <_sungetc_r>
 1202220:	a027883a 	mov	r19,r20
 1202224:	880f883a 	mov	r7,r17
 1202228:	8080040c 	andi	r2,r16,16
 120222c:	103e7d1e 	bne	r2,zero,1201c24 <__alt_mem_instruction_tcm+0xff201c24>
 1202230:	38000005 	stb	zero,0(r7)
 1202234:	80c1800c 	andi	r3,r16,1536
 1202238:	00810004 	movi	r2,1024
 120223c:	18836b26 	beq	r3,r2,1202fec <__ssvfscanf_r+0x14c0>
 1202240:	d8c0a217 	ldw	r3,648(sp)
 1202244:	1803221e 	bne	r3,zero,1202ed0 <__ssvfscanf_r+0x13a4>
 1202248:	b009883a 	mov	r4,r22
 120224c:	d9400104 	addi	r5,sp,4
 1202250:	000d883a 	mov	r6,zero
 1202254:	1204ec40 	call	1204ec4 <_strtod_r>
 1202258:	1023883a 	mov	r17,r2
 120225c:	8080004c 	andi	r2,r16,1
 1202260:	1002eb1e 	bne	r2,zero,1202e10 <__ssvfscanf_r+0x12e4>
 1202264:	8280008c 	andi	r10,r16,2
 1202268:	50038e26 	beq	r10,zero,12030a4 <__ssvfscanf_r+0x1578>
 120226c:	dac09c17 	ldw	r11,624(sp)
 1202270:	58800017 	ldw	r2,0(r11)
 1202274:	5ac00104 	addi	r11,r11,4
 1202278:	dac09c15 	stw	r11,624(sp)
 120227c:	14400015 	stw	r17,0(r2)
 1202280:	10c00115 	stw	r3,4(r2)
 1202284:	dac09f17 	ldw	r11,636(sp)
 1202288:	9023883a 	mov	r17,r18
 120228c:	5ac00044 	addi	r11,r11,1
 1202290:	dac09f15 	stw	r11,636(sp)
 1202294:	003e6406 	br	1201c28 <__alt_mem_instruction_tcm+0xff201c28>
 1202298:	90803fcc 	andi	r2,r18,255
 120229c:	1080201c 	xori	r2,r2,128
 12022a0:	10bfe004 	addi	r2,r2,-128
 12022a4:	014001c4 	movi	r5,7
 12022a8:	117fa51e 	bne	r2,r5,1202140 <__alt_mem_instruction_tcm+0xff202140>
 12022ac:	04800204 	movi	r18,8
 12022b0:	003f9806 	br	1202114 <__alt_mem_instruction_tcm+0xff202114>
 12022b4:	8880800c 	andi	r2,r17,512
 12022b8:	103fa126 	beq	r2,zero,1202140 <__alt_mem_instruction_tcm+0xff202140>
 12022bc:	d9409d17 	ldw	r5,628(sp)
 12022c0:	00bf5fc4 	movi	r2,-641
 12022c4:	88a2703a 	and	r17,r17,r2
 12022c8:	d940a115 	stw	r5,644(sp)
 12022cc:	003f9106 	br	1202114 <__alt_mem_instruction_tcm+0xff202114>
 12022d0:	8880200c 	andi	r2,r17,128
 12022d4:	103f9a26 	beq	r2,zero,1202140 <__alt_mem_instruction_tcm+0xff202140>
 12022d8:	00bfdfc4 	movi	r2,-129
 12022dc:	88a2703a 	and	r17,r17,r2
 12022e0:	003f8c06 	br	1202114 <__alt_mem_instruction_tcm+0xff202114>
 12022e4:	91403fcc 	andi	r5,r18,255
 12022e8:	2940201c 	xori	r5,r5,128
 12022ec:	297fe004 	addi	r5,r5,-128
 12022f0:	00800184 	movi	r2,6
 12022f4:	28bf921e 	bne	r5,r2,1202140 <__alt_mem_instruction_tcm+0xff202140>
 12022f8:	048001c4 	movi	r18,7
 12022fc:	003f8506 	br	1202114 <__alt_mem_instruction_tcm+0xff202114>
 1202300:	a0025c1e 	bne	r20,zero,1202c74 <__ssvfscanf_r+0x1148>
 1202304:	d9409d17 	ldw	r5,628(sp)
 1202308:	2802d226 	beq	r5,zero,1202e54 <__ssvfscanf_r+0x1328>
 120230c:	90803fcc 	andi	r2,r18,255
 1202310:	1080201c 	xori	r2,r2,128
 1202314:	10bfe004 	addi	r2,r2,-128
 1202318:	01400044 	movi	r5,1
 120231c:	11400226 	beq	r2,r5,1202328 <__ssvfscanf_r+0x7fc>
 1202320:	01400104 	movi	r5,4
 1202324:	117f861e 	bne	r2,r5,1202140 <__alt_mem_instruction_tcm+0xff202140>
 1202328:	94800044 	addi	r18,r18,1
 120232c:	003f7906 	br	1202114 <__alt_mem_instruction_tcm+0xff202114>
 1202330:	90803fcc 	andi	r2,r18,255
 1202334:	1080201c 	xori	r2,r2,128
 1202338:	10bfe004 	addi	r2,r2,-128
 120233c:	1002481e 	bne	r2,zero,1202c60 <__ssvfscanf_r+0x1134>
 1202340:	d8809d17 	ldw	r2,628(sp)
 1202344:	1002bc1e 	bne	r2,zero,1202e38 <__ssvfscanf_r+0x130c>
 1202348:	8941c00c 	andi	r5,r17,1792
 120234c:	0081c004 	movi	r2,1792
 1202350:	28838f26 	beq	r5,r2,1203190 <__ssvfscanf_r+0x1664>
 1202354:	8821883a 	mov	r16,r17
 1202358:	e00f883a 	mov	r7,fp
 120235c:	9023883a 	mov	r17,r18
 1202360:	4025883a 	mov	r18,r8
 1202364:	003f7c06 	br	1202158 <__alt_mem_instruction_tcm+0xff202158>
 1202368:	91403fcc 	andi	r5,r18,255
 120236c:	2940201c 	xori	r5,r5,128
 1202370:	297fe004 	addi	r5,r5,-128
 1202374:	00800084 	movi	r2,2
 1202378:	28bf711e 	bne	r5,r2,1202140 <__alt_mem_instruction_tcm+0xff202140>
 120237c:	048000c4 	movi	r18,3
 1202380:	003f6406 	br	1202114 <__alt_mem_instruction_tcm+0xff202114>
 1202384:	8881400c 	andi	r2,r17,1280
 1202388:	01410004 	movi	r5,1024
 120238c:	11400426 	beq	r2,r5,12023a0 <__ssvfscanf_r+0x874>
 1202390:	8944703a 	and	r2,r17,r5
 1202394:	103f6a26 	beq	r2,zero,1202140 <__alt_mem_instruction_tcm+0xff202140>
 1202398:	d8809d17 	ldw	r2,628(sp)
 120239c:	103fed26 	beq	r2,zero,1202354 <__alt_mem_instruction_tcm+0xff202354>
 12023a0:	8880800c 	andi	r2,r17,512
 12023a4:	1000051e 	bne	r2,zero,12023bc <__ssvfscanf_r+0x890>
 12023a8:	d9409d17 	ldw	r5,628(sp)
 12023ac:	d880a117 	ldw	r2,644(sp)
 12023b0:	df00a415 	stw	fp,656(sp)
 12023b4:	288bc83a 	sub	r5,r5,r2
 12023b8:	d940a215 	stw	r5,648(sp)
 12023bc:	88e2703a 	and	r17,r17,r3
 12023c0:	8c406014 	ori	r17,r17,384
 12023c4:	d8009d15 	stw	zero,628(sp)
 12023c8:	003f5206 	br	1202114 <__alt_mem_instruction_tcm+0xff202114>
 12023cc:	00800044 	movi	r2,1
 12023d0:	a0bf5b1e 	bne	r20,r2,1202140 <__alt_mem_instruction_tcm+0xff202140>
 12023d4:	05000084 	movi	r20,2
 12023d8:	003f4e06 	br	1202114 <__alt_mem_instruction_tcm+0xff202114>
 12023dc:	8880400c 	andi	r2,r17,256
 12023e0:	103f4526 	beq	r2,zero,12020f8 <__alt_mem_instruction_tcm+0xff2020f8>
 12023e4:	00bfdfc4 	movi	r2,-129
 12023e8:	88a2703a 	and	r17,r17,r2
 12023ec:	d8809d17 	ldw	r2,628(sp)
 12023f0:	d900a317 	ldw	r4,652(sp)
 12023f4:	10800044 	addi	r2,r2,1
 12023f8:	d8809d15 	stw	r2,628(sp)
 12023fc:	203f4726 	beq	r4,zero,120211c <__alt_mem_instruction_tcm+0xff20211c>
 1202400:	213fffc4 	addi	r4,r4,-1
 1202404:	d900a315 	stw	r4,652(sp)
 1202408:	84000044 	addi	r16,r16,1
 120240c:	003f4306 	br	120211c <__alt_mem_instruction_tcm+0xff20211c>
 1202410:	90c00043 	ldbu	r3,1(r18)
 1202414:	2825883a 	mov	r18,r5
 1202418:	84000414 	ori	r16,r16,16
 120241c:	18803fcc 	andi	r2,r3,255
 1202420:	91400044 	addi	r5,r18,1
 1202424:	30be112e 	bgeu	r6,r2,1201c6c <__alt_mem_instruction_tcm+0xff201c6c>
 1202428:	18c03fcc 	andi	r3,r3,255
 120242c:	18c0201c 	xori	r3,r3,128
 1202430:	18ffe004 	addi	r3,r3,-128
 1202434:	20c9883a 	add	r4,r4,r3
 1202438:	20800043 	ldbu	r2,1(r4)
 120243c:	00c00044 	movi	r3,1
 1202440:	2825883a 	mov	r18,r5
 1202444:	108000cc 	andi	r2,r2,3
 1202448:	10c2ee26 	beq	r2,r3,1203004 <__ssvfscanf_r+0x14d8>
 120244c:	00804834 	movhi	r2,288
 1202450:	10994904 	addi	r2,r2,25892
 1202454:	d880a015 	stw	r2,640(sp)
 1202458:	b8800117 	ldw	r2,4(r23)
 120245c:	02000284 	movi	r8,10
 1202460:	da009e15 	stw	r8,632(sp)
 1202464:	8839883a 	mov	fp,r17
 1202468:	050000c4 	movi	r20,3
 120246c:	00be9616 	blt	zero,r2,1201ec8 <__alt_mem_instruction_tcm+0xff201ec8>
 1202470:	b009883a 	mov	r4,r22
 1202474:	b80b883a 	mov	r5,r23
 1202478:	12071b40 	call	12071b4 <__ssrefill_r>
 120247c:	103e9226 	beq	r2,zero,1201ec8 <__alt_mem_instruction_tcm+0xff201ec8>
 1202480:	12008e80 	call	12008e8 <__sfp_lock_release>
 1202484:	da009f17 	ldw	r8,636(sp)
 1202488:	40007926 	beq	r8,zero,1202670 <__ssvfscanf_r+0xb44>
 120248c:	b880030b 	ldhu	r2,12(r23)
 1202490:	1080100c 	andi	r2,r2,64
 1202494:	1000761e 	bne	r2,zero,1202670 <__ssvfscanf_r+0xb44>
 1202498:	4005883a 	mov	r2,r8
 120249c:	00000206 	br	12024a8 <__ssvfscanf_r+0x97c>
 12024a0:	12008e80 	call	12008e8 <__sfp_lock_release>
 12024a4:	00bfffc4 	movi	r2,-1
 12024a8:	dfc0b417 	ldw	ra,720(sp)
 12024ac:	df00b317 	ldw	fp,716(sp)
 12024b0:	ddc0b217 	ldw	r23,712(sp)
 12024b4:	dd80b117 	ldw	r22,708(sp)
 12024b8:	dd40b017 	ldw	r21,704(sp)
 12024bc:	dd00af17 	ldw	r20,700(sp)
 12024c0:	dcc0ae17 	ldw	r19,696(sp)
 12024c4:	dc80ad17 	ldw	r18,692(sp)
 12024c8:	dc40ac17 	ldw	r17,688(sp)
 12024cc:	dc00ab17 	ldw	r16,684(sp)
 12024d0:	dec0b504 	addi	sp,sp,724
 12024d4:	f800283a 	ret
 12024d8:	90c00043 	ldbu	r3,1(r18)
 12024dc:	84000094 	ori	r16,r16,2
 12024e0:	2825883a 	mov	r18,r5
 12024e4:	003dde06 	br	1201c60 <__alt_mem_instruction_tcm+0xff201c60>
 12024e8:	2825883a 	mov	r18,r5
 12024ec:	8839883a 	mov	fp,r17
 12024f0:	05000104 	movi	r20,4
 12024f4:	003e7206 	br	1201ec0 <__alt_mem_instruction_tcm+0xff201ec0>
 12024f8:	2825883a 	mov	r18,r5
 12024fc:	84000054 	ori	r16,r16,1
 1202500:	02c04834 	movhi	r11,288
 1202504:	5ad94904 	addi	r11,r11,25892
 1202508:	02000284 	movi	r8,10
 120250c:	8839883a 	mov	fp,r17
 1202510:	dac0a015 	stw	r11,640(sp)
 1202514:	da009e15 	stw	r8,632(sp)
 1202518:	050000c4 	movi	r20,3
 120251c:	003e6806 	br	1201ec0 <__alt_mem_instruction_tcm+0xff201ec0>
 1202520:	18803fcc 	andi	r2,r3,255
 1202524:	8c4002a4 	muli	r17,r17,10
 1202528:	1080201c 	xori	r2,r2,128
 120252c:	10bfe004 	addi	r2,r2,-128
 1202530:	88a3883a 	add	r17,r17,r2
 1202534:	90c00043 	ldbu	r3,1(r18)
 1202538:	8c7ff404 	addi	r17,r17,-48
 120253c:	2825883a 	mov	r18,r5
 1202540:	003dc706 	br	1201c60 <__alt_mem_instruction_tcm+0xff201c60>
 1202544:	02c04834 	movhi	r11,288
 1202548:	5adaaf04 	addi	r11,r11,27324
 120254c:	02000284 	movi	r8,10
 1202550:	2825883a 	mov	r18,r5
 1202554:	8839883a 	mov	fp,r17
 1202558:	dac0a015 	stw	r11,640(sp)
 120255c:	da009e15 	stw	r8,632(sp)
 1202560:	050000c4 	movi	r20,3
 1202564:	003e5606 	br	1201ec0 <__alt_mem_instruction_tcm+0xff201ec0>
 1202568:	2825883a 	mov	r18,r5
 120256c:	8839883a 	mov	fp,r17
 1202570:	05000084 	movi	r20,2
 1202574:	003e5206 	br	1201ec0 <__alt_mem_instruction_tcm+0xff201ec0>
 1202578:	2825883a 	mov	r18,r5
 120257c:	84008814 	ori	r16,r16,544
 1202580:	02c04834 	movhi	r11,288
 1202584:	5adaaf04 	addi	r11,r11,27324
 1202588:	02000404 	movi	r8,16
 120258c:	8839883a 	mov	fp,r17
 1202590:	dac0a015 	stw	r11,640(sp)
 1202594:	da009e15 	stw	r8,632(sp)
 1202598:	050000c4 	movi	r20,3
 120259c:	003e4806 	br	1201ec0 <__alt_mem_instruction_tcm+0xff201ec0>
 12025a0:	2825883a 	mov	r18,r5
 12025a4:	02c04834 	movhi	r11,288
 12025a8:	5adaaf04 	addi	r11,r11,27324
 12025ac:	02000204 	movi	r8,8
 12025b0:	8839883a 	mov	fp,r17
 12025b4:	dac0a015 	stw	r11,640(sp)
 12025b8:	da009e15 	stw	r8,632(sp)
 12025bc:	050000c4 	movi	r20,3
 12025c0:	003e3f06 	br	1201ec0 <__alt_mem_instruction_tcm+0xff201ec0>
 12025c4:	8080040c 	andi	r2,r16,16
 12025c8:	2825883a 	mov	r18,r5
 12025cc:	103d951e 	bne	r2,zero,1201c24 <__alt_mem_instruction_tcm+0xff201c24>
 12025d0:	8080010c 	andi	r2,r16,4
 12025d4:	10028d26 	beq	r2,zero,120300c <__ssvfscanf_r+0x14e0>
 12025d8:	dac09c17 	ldw	r11,624(sp)
 12025dc:	58800017 	ldw	r2,0(r11)
 12025e0:	5ac00104 	addi	r11,r11,4
 12025e4:	dac09c15 	stw	r11,624(sp)
 12025e8:	14c0000d 	sth	r19,0(r2)
 12025ec:	003d8d06 	br	1201c24 <__alt_mem_instruction_tcm+0xff201c24>
 12025f0:	90c00043 	ldbu	r3,1(r18)
 12025f4:	18803fcc 	andi	r2,r3,255
 12025f8:	1080201c 	xori	r2,r2,128
 12025fc:	10bfe004 	addi	r2,r2,-128
 1202600:	11c27626 	beq	r2,r7,1202fdc <__ssvfscanf_r+0x14b0>
 1202604:	84000054 	ori	r16,r16,1
 1202608:	2825883a 	mov	r18,r5
 120260c:	003d9406 	br	1201c60 <__alt_mem_instruction_tcm+0xff201c60>
 1202610:	90c00043 	ldbu	r3,1(r18)
 1202614:	84000114 	ori	r16,r16,4
 1202618:	2825883a 	mov	r18,r5
 120261c:	003d9006 	br	1201c60 <__alt_mem_instruction_tcm+0xff201c60>
 1202620:	2825883a 	mov	r18,r5
 1202624:	003fb606 	br	1202500 <__alt_mem_instruction_tcm+0xff202500>
 1202628:	2825883a 	mov	r18,r5
 120262c:	84001014 	ori	r16,r16,64
 1202630:	8839883a 	mov	fp,r17
 1202634:	0029883a 	mov	r20,zero
 1202638:	003e2106 	br	1201ec0 <__alt_mem_instruction_tcm+0xff201ec0>
 120263c:	d9005884 	addi	r4,sp,354
 1202640:	1204c940 	call	1204c94 <__sccl>
 1202644:	1025883a 	mov	r18,r2
 1202648:	84001014 	ori	r16,r16,64
 120264c:	8839883a 	mov	fp,r17
 1202650:	05000044 	movi	r20,1
 1202654:	003e1a06 	br	1201ec0 <__alt_mem_instruction_tcm+0xff201ec0>
 1202658:	2825883a 	mov	r18,r5
 120265c:	84008014 	ori	r16,r16,512
 1202660:	003fc706 	br	1202580 <__alt_mem_instruction_tcm+0xff202580>
 1202664:	2825883a 	mov	r18,r5
 1202668:	84000054 	ori	r16,r16,1
 120266c:	003fcd06 	br	12025a4 <__alt_mem_instruction_tcm+0xff2025a4>
 1202670:	00bfffc4 	movi	r2,-1
 1202674:	003f8c06 	br	12024a8 <__alt_mem_instruction_tcm+0xff2024a8>
 1202678:	00800044 	movi	r2,1
 120267c:	a0803d1e 	bne	r20,r2,1202774 <__ssvfscanf_r+0xc48>
 1202680:	8800011e 	bne	r17,zero,1202688 <__ssvfscanf_r+0xb5c>
 1202684:	073fffc4 	movi	fp,-1
 1202688:	8400040c 	andi	r16,r16,16
 120268c:	80012a26 	beq	r16,zero,1202b38 <__ssvfscanf_r+0x100c>
 1202690:	b9000017 	ldw	r4,0(r23)
 1202694:	0021883a 	mov	r16,zero
 1202698:	dc405884 	addi	r17,sp,354
 120269c:	20800003 	ldbu	r2,0(r4)
 12026a0:	8885883a 	add	r2,r17,r2
 12026a4:	10800007 	ldb	r2,0(r2)
 12026a8:	10001126 	beq	r2,zero,12026f0 <__ssvfscanf_r+0xbc4>
 12026ac:	b8800117 	ldw	r2,4(r23)
 12026b0:	21000044 	addi	r4,r4,1
 12026b4:	84000044 	addi	r16,r16,1
 12026b8:	10bfffc4 	addi	r2,r2,-1
 12026bc:	b8800115 	stw	r2,4(r23)
 12026c0:	b9000015 	stw	r4,0(r23)
 12026c4:	e4000b26 	beq	fp,r16,12026f4 <__ssvfscanf_r+0xbc8>
 12026c8:	00bff416 	blt	zero,r2,120269c <__alt_mem_instruction_tcm+0xff20269c>
 12026cc:	b009883a 	mov	r4,r22
 12026d0:	b80b883a 	mov	r5,r23
 12026d4:	12071b40 	call	12071b4 <__ssrefill_r>
 12026d8:	1000061e 	bne	r2,zero,12026f4 <__ssvfscanf_r+0xbc8>
 12026dc:	b9000017 	ldw	r4,0(r23)
 12026e0:	20800003 	ldbu	r2,0(r4)
 12026e4:	8885883a 	add	r2,r17,r2
 12026e8:	10800007 	ldb	r2,0(r2)
 12026ec:	103fef1e 	bne	r2,zero,12026ac <__alt_mem_instruction_tcm+0xff2026ac>
 12026f0:	803d5126 	beq	r16,zero,1201c38 <__alt_mem_instruction_tcm+0xff201c38>
 12026f4:	9c27883a 	add	r19,r19,r16
 12026f8:	9023883a 	mov	r17,r18
 12026fc:	003d4a06 	br	1201c28 <__alt_mem_instruction_tcm+0xff201c28>
 1202700:	8800011e 	bne	r17,zero,1202708 <__ssvfscanf_r+0xbdc>
 1202704:	073fffc4 	movi	fp,-1
 1202708:	8080004c 	andi	r2,r16,1
 120270c:	10016f1e 	bne	r2,zero,1202ccc <__ssvfscanf_r+0x11a0>
 1202710:	8400040c 	andi	r16,r16,16
 1202714:	80012a26 	beq	r16,zero,1202bc0 <__ssvfscanf_r+0x1094>
 1202718:	a9400017 	ldw	r5,0(r21)
 120271c:	b9000017 	ldw	r4,0(r23)
 1202720:	0021883a 	mov	r16,zero
 1202724:	20800003 	ldbu	r2,0(r4)
 1202728:	2885883a 	add	r2,r5,r2
 120272c:	10800043 	ldbu	r2,1(r2)
 1202730:	1080020c 	andi	r2,r2,8
 1202734:	103fef1e 	bne	r2,zero,12026f4 <__alt_mem_instruction_tcm+0xff2026f4>
 1202738:	b8800117 	ldw	r2,4(r23)
 120273c:	21000044 	addi	r4,r4,1
 1202740:	84000044 	addi	r16,r16,1
 1202744:	10bfffc4 	addi	r2,r2,-1
 1202748:	b8800115 	stw	r2,4(r23)
 120274c:	b9000015 	stw	r4,0(r23)
 1202750:	e43fe826 	beq	fp,r16,12026f4 <__alt_mem_instruction_tcm+0xff2026f4>
 1202754:	00bff316 	blt	zero,r2,1202724 <__alt_mem_instruction_tcm+0xff202724>
 1202758:	b009883a 	mov	r4,r22
 120275c:	b80b883a 	mov	r5,r23
 1202760:	12071b40 	call	12071b4 <__ssrefill_r>
 1202764:	103fe31e 	bne	r2,zero,12026f4 <__alt_mem_instruction_tcm+0xff2026f4>
 1202768:	a9400017 	ldw	r5,0(r21)
 120276c:	b9000017 	ldw	r4,0(r23)
 1202770:	003fec06 	br	1202724 <__alt_mem_instruction_tcm+0xff202724>
 1202774:	8800011e 	bne	r17,zero,120277c <__ssvfscanf_r+0xc50>
 1202778:	07000044 	movi	fp,1
 120277c:	8080004c 	andi	r2,r16,1
 1202780:	1001701e 	bne	r2,zero,1202d44 <__ssvfscanf_r+0x1218>
 1202784:	8400040c 	andi	r16,r16,16
 1202788:	8001f626 	beq	r16,zero,1202f64 <__ssvfscanf_r+0x1438>
 120278c:	0021883a 	mov	r16,zero
 1202790:	00000906 	br	12027b8 <__ssvfscanf_r+0xc8c>
 1202794:	b8c00017 	ldw	r3,0(r23)
 1202798:	b009883a 	mov	r4,r22
 120279c:	b80b883a 	mov	r5,r23
 12027a0:	1887883a 	add	r3,r3,r2
 12027a4:	b8c00015 	stw	r3,0(r23)
 12027a8:	80a1883a 	add	r16,r16,r2
 12027ac:	e0b9c83a 	sub	fp,fp,r2
 12027b0:	12071b40 	call	12071b4 <__ssrefill_r>
 12027b4:	1001e81e 	bne	r2,zero,1202f58 <__ssvfscanf_r+0x142c>
 12027b8:	b8800117 	ldw	r2,4(r23)
 12027bc:	173ff516 	blt	r2,fp,1202794 <__alt_mem_instruction_tcm+0xff202794>
 12027c0:	b9000017 	ldw	r4,0(r23)
 12027c4:	1705c83a 	sub	r2,r2,fp
 12027c8:	e421883a 	add	r16,fp,r16
 12027cc:	2707883a 	add	r3,r4,fp
 12027d0:	b8800115 	stw	r2,4(r23)
 12027d4:	b8c00015 	stw	r3,0(r23)
 12027d8:	9c27883a 	add	r19,r19,r16
 12027dc:	003fc606 	br	12026f8 <__alt_mem_instruction_tcm+0xff2026f8>
 12027e0:	88bfffc4 	addi	r2,r17,-1
 12027e4:	01005704 	movi	r4,348
 12027e8:	2080cf2e 	bgeu	r4,r2,1202b28 <__ssvfscanf_r+0xffc>
 12027ec:	89ffa8c4 	addi	r7,r17,-349
 12027f0:	07005744 	movi	fp,349
 12027f4:	84436014 	ori	r17,r16,3456
 12027f8:	0021883a 	mov	r16,zero
 12027fc:	9013883a 	mov	r9,r18
 1202800:	8025883a 	mov	r18,r16
 1202804:	dc009e17 	ldw	r16,632(sp)
 1202808:	dd000104 	addi	r20,sp,4
 120280c:	02001344 	movi	r8,77
 1202810:	02808004 	movi	r10,512
 1202814:	01bf7fc4 	movi	r6,-513
 1202818:	00ffdfc4 	movi	r3,-129
 120281c:	b9000017 	ldw	r4,0(r23)
 1202820:	21400003 	ldbu	r5,0(r4)
 1202824:	28bff544 	addi	r2,r5,-43
 1202828:	10803fcc 	andi	r2,r2,255
 120282c:	40806336 	bltu	r8,r2,12029bc <__ssvfscanf_r+0xe90>
 1202830:	100490ba 	slli	r2,r2,2
 1202834:	02c04834 	movhi	r11,288
 1202838:	5aca1204 	addi	r11,r11,10312
 120283c:	12c5883a 	add	r2,r2,r11
 1202840:	10800017 	ldw	r2,0(r2)
 1202844:	1000683a 	jmp	r2
 1202848:	01202adc 	xori	r4,zero,32939
 120284c:	012029bc 	xorhi	r4,zero,32934
 1202850:	01202adc 	xori	r4,zero,32939
 1202854:	012029bc 	xorhi	r4,zero,32934
 1202858:	012029bc 	xorhi	r4,zero,32934
 120285c:	01202a54 	movui	r4,32937
 1202860:	01202a34 	movhi	r4,32936
 1202864:	01202a34 	movhi	r4,32936
 1202868:	01202a34 	movhi	r4,32936
 120286c:	01202a34 	movhi	r4,32936
 1202870:	01202a34 	movhi	r4,32936
 1202874:	01202a34 	movhi	r4,32936
 1202878:	01202a34 	movhi	r4,32936
 120287c:	01202a14 	movui	r4,32936
 1202880:	01202a14 	movui	r4,32936
 1202884:	012029bc 	xorhi	r4,zero,32934
 1202888:	012029bc 	xorhi	r4,zero,32934
 120288c:	012029bc 	xorhi	r4,zero,32934
 1202890:	012029bc 	xorhi	r4,zero,32934
 1202894:	012029bc 	xorhi	r4,zero,32934
 1202898:	012029bc 	xorhi	r4,zero,32934
 120289c:	012029bc 	xorhi	r4,zero,32934
 12028a0:	01202a00 	call	1202a0 <__alt_mem_ext_flash_ctl-0x6dfd60>
 12028a4:	01202a00 	call	1202a0 <__alt_mem_ext_flash_ctl-0x6dfd60>
 12028a8:	01202a00 	call	1202a0 <__alt_mem_ext_flash_ctl-0x6dfd60>
 12028ac:	01202a00 	call	1202a0 <__alt_mem_ext_flash_ctl-0x6dfd60>
 12028b0:	01202a00 	call	1202a0 <__alt_mem_ext_flash_ctl-0x6dfd60>
 12028b4:	01202a00 	call	1202a0 <__alt_mem_ext_flash_ctl-0x6dfd60>
 12028b8:	012029bc 	xorhi	r4,zero,32934
 12028bc:	012029bc 	xorhi	r4,zero,32934
 12028c0:	012029bc 	xorhi	r4,zero,32934
 12028c4:	012029bc 	xorhi	r4,zero,32934
 12028c8:	012029bc 	xorhi	r4,zero,32934
 12028cc:	012029bc 	xorhi	r4,zero,32934
 12028d0:	012029bc 	xorhi	r4,zero,32934
 12028d4:	012029bc 	xorhi	r4,zero,32934
 12028d8:	012029bc 	xorhi	r4,zero,32934
 12028dc:	012029bc 	xorhi	r4,zero,32934
 12028e0:	012029bc 	xorhi	r4,zero,32934
 12028e4:	012029bc 	xorhi	r4,zero,32934
 12028e8:	012029bc 	xorhi	r4,zero,32934
 12028ec:	012029bc 	xorhi	r4,zero,32934
 12028f0:	012029bc 	xorhi	r4,zero,32934
 12028f4:	012029bc 	xorhi	r4,zero,32934
 12028f8:	012029bc 	xorhi	r4,zero,32934
 12028fc:	01202980 	call	120298 <__alt_mem_ext_flash_ctl-0x6dfd68>
 1202900:	012029bc 	xorhi	r4,zero,32934
 1202904:	012029bc 	xorhi	r4,zero,32934
 1202908:	012029bc 	xorhi	r4,zero,32934
 120290c:	012029bc 	xorhi	r4,zero,32934
 1202910:	012029bc 	xorhi	r4,zero,32934
 1202914:	012029bc 	xorhi	r4,zero,32934
 1202918:	012029bc 	xorhi	r4,zero,32934
 120291c:	012029bc 	xorhi	r4,zero,32934
 1202920:	01202a00 	call	1202a0 <__alt_mem_ext_flash_ctl-0x6dfd60>
 1202924:	01202a00 	call	1202a0 <__alt_mem_ext_flash_ctl-0x6dfd60>
 1202928:	01202a00 	call	1202a0 <__alt_mem_ext_flash_ctl-0x6dfd60>
 120292c:	01202a00 	call	1202a0 <__alt_mem_ext_flash_ctl-0x6dfd60>
 1202930:	01202a00 	call	1202a0 <__alt_mem_ext_flash_ctl-0x6dfd60>
 1202934:	01202a00 	call	1202a0 <__alt_mem_ext_flash_ctl-0x6dfd60>
 1202938:	012029bc 	xorhi	r4,zero,32934
 120293c:	012029bc 	xorhi	r4,zero,32934
 1202940:	012029bc 	xorhi	r4,zero,32934
 1202944:	012029bc 	xorhi	r4,zero,32934
 1202948:	012029bc 	xorhi	r4,zero,32934
 120294c:	012029bc 	xorhi	r4,zero,32934
 1202950:	012029bc 	xorhi	r4,zero,32934
 1202954:	012029bc 	xorhi	r4,zero,32934
 1202958:	012029bc 	xorhi	r4,zero,32934
 120295c:	012029bc 	xorhi	r4,zero,32934
 1202960:	012029bc 	xorhi	r4,zero,32934
 1202964:	012029bc 	xorhi	r4,zero,32934
 1202968:	012029bc 	xorhi	r4,zero,32934
 120296c:	012029bc 	xorhi	r4,zero,32934
 1202970:	012029bc 	xorhi	r4,zero,32934
 1202974:	012029bc 	xorhi	r4,zero,32934
 1202978:	012029bc 	xorhi	r4,zero,32934
 120297c:	01202980 	call	120298 <__alt_mem_ext_flash_ctl-0x6dfd68>
 1202980:	8881800c 	andi	r2,r17,1536
 1202984:	12800d1e 	bne	r2,r10,12029bc <__ssvfscanf_r+0xe90>
 1202988:	89a2703a 	and	r17,r17,r6
 120298c:	8c414014 	ori	r17,r17,1280
 1202990:	04000404 	movi	r16,16
 1202994:	b8800117 	ldw	r2,4(r23)
 1202998:	a1400005 	stb	r5,0(r20)
 120299c:	a5000044 	addi	r20,r20,1
 12029a0:	10bfffc4 	addi	r2,r2,-1
 12029a4:	b8800115 	stw	r2,4(r23)
 12029a8:	00803b0e 	bge	zero,r2,1202a98 <__ssvfscanf_r+0xf6c>
 12029ac:	21000044 	addi	r4,r4,1
 12029b0:	b9000015 	stw	r4,0(r23)
 12029b4:	e73fffc4 	addi	fp,fp,-1
 12029b8:	e03f981e 	bne	fp,zero,120281c <__alt_mem_instruction_tcm+0xff20281c>
 12029bc:	dc009e15 	stw	r16,632(sp)
 12029c0:	8880400c 	andi	r2,r17,256
 12029c4:	9021883a 	mov	r16,r18
 12029c8:	4825883a 	mov	r18,r9
 12029cc:	10000426 	beq	r2,zero,12029e0 <__ssvfscanf_r+0xeb4>
 12029d0:	d8800104 	addi	r2,sp,4
 12029d4:	15017b36 	bltu	r2,r20,1202fc4 <__ssvfscanf_r+0x1498>
 12029d8:	d8c00104 	addi	r3,sp,4
 12029dc:	1d3c9626 	beq	r3,r20,1201c38 <__alt_mem_instruction_tcm+0xff201c38>
 12029e0:	8880040c 	andi	r2,r17,16
 12029e4:	1000a726 	beq	r2,zero,1202c84 <__ssvfscanf_r+0x1158>
 12029e8:	dac00104 	addi	r11,sp,4
 12029ec:	a2e9c83a 	sub	r20,r20,r11
 12029f0:	a429883a 	add	r20,r20,r16
 12029f4:	9d27883a 	add	r19,r19,r20
 12029f8:	9023883a 	mov	r17,r18
 12029fc:	003c8a06 	br	1201c28 <__alt_mem_instruction_tcm+0xff201c28>
 1202a00:	00800284 	movi	r2,10
 1202a04:	143fed0e 	bge	r2,r16,12029bc <__alt_mem_instruction_tcm+0xff2029bc>
 1202a08:	00bd1fc4 	movi	r2,-2945
 1202a0c:	88a2703a 	and	r17,r17,r2
 1202a10:	003fe006 	br	1202994 <__alt_mem_instruction_tcm+0xff202994>
 1202a14:	02c04874 	movhi	r11,289
 1202a18:	8421883a 	add	r16,r16,r16
 1202a1c:	5addb484 	addi	r11,r11,30418
 1202a20:	5c05883a 	add	r2,r11,r16
 1202a24:	1400000f 	ldh	r16,0(r2)
 1202a28:	00800204 	movi	r2,8
 1202a2c:	143ff616 	blt	r2,r16,1202a08 <__alt_mem_instruction_tcm+0xff202a08>
 1202a30:	003fe206 	br	12029bc <__alt_mem_instruction_tcm+0xff2029bc>
 1202a34:	02c04874 	movhi	r11,289
 1202a38:	8421883a 	add	r16,r16,r16
 1202a3c:	5addb484 	addi	r11,r11,30418
 1202a40:	5c05883a 	add	r2,r11,r16
 1202a44:	1400000f 	ldh	r16,0(r2)
 1202a48:	00bd1fc4 	movi	r2,-2945
 1202a4c:	88a2703a 	and	r17,r17,r2
 1202a50:	003fd006 	br	1202994 <__alt_mem_instruction_tcm+0xff202994>
 1202a54:	8882000c 	andi	r2,r17,2048
 1202a58:	103fce26 	beq	r2,zero,1202994 <__alt_mem_instruction_tcm+0xff202994>
 1202a5c:	8000021e 	bne	r16,zero,1202a68 <__ssvfscanf_r+0xf3c>
 1202a60:	8c408014 	ori	r17,r17,512
 1202a64:	04000204 	movi	r16,8
 1202a68:	8881000c 	andi	r2,r17,1024
 1202a6c:	1000ef1e 	bne	r2,zero,1202e2c <__ssvfscanf_r+0x1300>
 1202a70:	00bf1fc4 	movi	r2,-897
 1202a74:	88a2703a 	and	r17,r17,r2
 1202a78:	38000226 	beq	r7,zero,1202a84 <__ssvfscanf_r+0xf58>
 1202a7c:	39ffffc4 	addi	r7,r7,-1
 1202a80:	e7000044 	addi	fp,fp,1
 1202a84:	b8800117 	ldw	r2,4(r23)
 1202a88:	94800044 	addi	r18,r18,1
 1202a8c:	10bfffc4 	addi	r2,r2,-1
 1202a90:	b8800115 	stw	r2,4(r23)
 1202a94:	00bfc516 	blt	zero,r2,12029ac <__alt_mem_instruction_tcm+0xff2029ac>
 1202a98:	b009883a 	mov	r4,r22
 1202a9c:	b80b883a 	mov	r5,r23
 1202aa0:	d8c0aa15 	stw	r3,680(sp)
 1202aa4:	d980a615 	stw	r6,664(sp)
 1202aa8:	d9c0a815 	stw	r7,672(sp)
 1202aac:	da00a915 	stw	r8,676(sp)
 1202ab0:	da40a715 	stw	r9,668(sp)
 1202ab4:	da80a515 	stw	r10,660(sp)
 1202ab8:	12071b40 	call	12071b4 <__ssrefill_r>
 1202abc:	d8c0aa17 	ldw	r3,680(sp)
 1202ac0:	d980a617 	ldw	r6,664(sp)
 1202ac4:	d9c0a817 	ldw	r7,672(sp)
 1202ac8:	da00a917 	ldw	r8,676(sp)
 1202acc:	da40a717 	ldw	r9,668(sp)
 1202ad0:	da80a517 	ldw	r10,660(sp)
 1202ad4:	103fb726 	beq	r2,zero,12029b4 <__alt_mem_instruction_tcm+0xff2029b4>
 1202ad8:	003fb806 	br	12029bc <__alt_mem_instruction_tcm+0xff2029bc>
 1202adc:	8880200c 	andi	r2,r17,128
 1202ae0:	103fb626 	beq	r2,zero,12029bc <__alt_mem_instruction_tcm+0xff2029bc>
 1202ae4:	88e2703a 	and	r17,r17,r3
 1202ae8:	003faa06 	br	1202994 <__alt_mem_instruction_tcm+0xff202994>
 1202aec:	b009883a 	mov	r4,r22
 1202af0:	b80b883a 	mov	r5,r23
 1202af4:	d8c0aa15 	stw	r3,680(sp)
 1202af8:	da00a915 	stw	r8,676(sp)
 1202afc:	dac0a515 	stw	r11,660(sp)
 1202b00:	12071b40 	call	12071b4 <__ssrefill_r>
 1202b04:	d8c0aa17 	ldw	r3,680(sp)
 1202b08:	da00a917 	ldw	r8,676(sp)
 1202b0c:	dac0a517 	ldw	r11,660(sp)
 1202b10:	103d8b1e 	bne	r2,zero,1202140 <__alt_mem_instruction_tcm+0xff202140>
 1202b14:	803d0a1e 	bne	r16,zero,1201f40 <__alt_mem_instruction_tcm+0xff201f40>
 1202b18:	003d8906 	br	1202140 <__alt_mem_instruction_tcm+0xff202140>
 1202b1c:	00bfbfc4 	movi	r2,-257
 1202b20:	80a0703a 	and	r16,r16,r2
 1202b24:	003d8c06 	br	1202158 <__alt_mem_instruction_tcm+0xff202158>
 1202b28:	000f883a 	mov	r7,zero
 1202b2c:	003f3106 	br	12027f4 <__alt_mem_instruction_tcm+0xff2027f4>
 1202b30:	d800a315 	stw	zero,652(sp)
 1202b34:	003cf306 	br	1201f04 <__alt_mem_instruction_tcm+0xff201f04>
 1202b38:	dac09c17 	ldw	r11,624(sp)
 1202b3c:	e0ffffc4 	addi	r3,fp,-1
 1202b40:	dc405884 	addi	r17,sp,354
 1202b44:	5c000017 	ldw	r16,0(r11)
 1202b48:	5a000104 	addi	r8,r11,4
 1202b4c:	da009c15 	stw	r8,624(sp)
 1202b50:	800b883a 	mov	r5,r16
 1202b54:	80e9883a 	add	r20,r16,r3
 1202b58:	00000106 	br	1202b60 <__ssvfscanf_r+0x1034>
 1202b5c:	e00b883a 	mov	r5,fp
 1202b60:	b8c00017 	ldw	r3,0(r23)
 1202b64:	280d883a 	mov	r6,r5
 1202b68:	18800003 	ldbu	r2,0(r3)
 1202b6c:	8885883a 	add	r2,r17,r2
 1202b70:	10800007 	ldb	r2,0(r2)
 1202b74:	1000f626 	beq	r2,zero,1202f50 <__ssvfscanf_r+0x1424>
 1202b78:	b8800117 	ldw	r2,4(r23)
 1202b7c:	19c00044 	addi	r7,r3,1
 1202b80:	b9c00015 	stw	r7,0(r23)
 1202b84:	10bfffc4 	addi	r2,r2,-1
 1202b88:	b8800115 	stw	r2,4(r23)
 1202b8c:	18800003 	ldbu	r2,0(r3)
 1202b90:	37000044 	addi	fp,r6,1
 1202b94:	28800005 	stb	r2,0(r5)
 1202b98:	3500e426 	beq	r6,r20,1202f2c <__ssvfscanf_r+0x1400>
 1202b9c:	b8800117 	ldw	r2,4(r23)
 1202ba0:	00bfee16 	blt	zero,r2,1202b5c <__alt_mem_instruction_tcm+0xff202b5c>
 1202ba4:	b009883a 	mov	r4,r22
 1202ba8:	b80b883a 	mov	r5,r23
 1202bac:	12071b40 	call	12071b4 <__ssrefill_r>
 1202bb0:	103fea26 	beq	r2,zero,1202b5c <__alt_mem_instruction_tcm+0xff202b5c>
 1202bb4:	e009883a 	mov	r4,fp
 1202bb8:	8700dd1e 	bne	r16,fp,1202f30 <__ssvfscanf_r+0x1404>
 1202bbc:	003e3006 	br	1202480 <__alt_mem_instruction_tcm+0xff202480>
 1202bc0:	da009c17 	ldw	r8,624(sp)
 1202bc4:	e0ffffc4 	addi	r3,fp,-1
 1202bc8:	44400017 	ldw	r17,0(r8)
 1202bcc:	42c00104 	addi	r11,r8,4
 1202bd0:	dac09c15 	stw	r11,624(sp)
 1202bd4:	88e9883a 	add	r20,r17,r3
 1202bd8:	880b883a 	mov	r5,r17
 1202bdc:	00000106 	br	1202be4 <__ssvfscanf_r+0x10b8>
 1202be0:	800b883a 	mov	r5,r16
 1202be4:	b8c00017 	ldw	r3,0(r23)
 1202be8:	a9800017 	ldw	r6,0(r21)
 1202bec:	18800003 	ldbu	r2,0(r3)
 1202bf0:	3085883a 	add	r2,r6,r2
 1202bf4:	10800043 	ldbu	r2,1(r2)
 1202bf8:	1080020c 	andi	r2,r2,8
 1202bfc:	1000ea1e 	bne	r2,zero,1202fa8 <__ssvfscanf_r+0x147c>
 1202c00:	b8800117 	ldw	r2,4(r23)
 1202c04:	19800044 	addi	r6,r3,1
 1202c08:	b9800015 	stw	r6,0(r23)
 1202c0c:	10bfffc4 	addi	r2,r2,-1
 1202c10:	b8800115 	stw	r2,4(r23)
 1202c14:	18800003 	ldbu	r2,0(r3)
 1202c18:	2c000044 	addi	r16,r5,1
 1202c1c:	8039883a 	mov	fp,r16
 1202c20:	28800005 	stb	r2,0(r5)
 1202c24:	2d000626 	beq	r5,r20,1202c40 <__ssvfscanf_r+0x1114>
 1202c28:	b8800117 	ldw	r2,4(r23)
 1202c2c:	00bfec16 	blt	zero,r2,1202be0 <__alt_mem_instruction_tcm+0xff202be0>
 1202c30:	b009883a 	mov	r4,r22
 1202c34:	b80b883a 	mov	r5,r23
 1202c38:	12071b40 	call	12071b4 <__ssrefill_r>
 1202c3c:	103fe826 	beq	r2,zero,1202be0 <__alt_mem_instruction_tcm+0xff202be0>
 1202c40:	da009f17 	ldw	r8,636(sp)
 1202c44:	e463c83a 	sub	r17,fp,r17
 1202c48:	9c67883a 	add	r19,r19,r17
 1202c4c:	42000044 	addi	r8,r8,1
 1202c50:	e0000005 	stb	zero,0(fp)
 1202c54:	da009f15 	stw	r8,636(sp)
 1202c58:	9023883a 	mov	r17,r18
 1202c5c:	003bf206 	br	1201c28 <__alt_mem_instruction_tcm+0xff201c28>
 1202c60:	014000c4 	movi	r5,3
 1202c64:	117db026 	beq	r2,r5,1202328 <__alt_mem_instruction_tcm+0xff202328>
 1202c68:	01400144 	movi	r5,5
 1202c6c:	117dae26 	beq	r2,r5,1202328 <__alt_mem_instruction_tcm+0xff202328>
 1202c70:	003d3306 	br	1202140 <__alt_mem_instruction_tcm+0xff202140>
 1202c74:	00800084 	movi	r2,2
 1202c78:	a0bda41e 	bne	r20,r2,120230c <__alt_mem_instruction_tcm+0xff20230c>
 1202c7c:	050000c4 	movi	r20,3
 1202c80:	003d2406 	br	1202114 <__alt_mem_instruction_tcm+0xff202114>
 1202c84:	d9c09e17 	ldw	r7,632(sp)
 1202c88:	da00a017 	ldw	r8,640(sp)
 1202c8c:	b009883a 	mov	r4,r22
 1202c90:	d9400104 	addi	r5,sp,4
 1202c94:	000d883a 	mov	r6,zero
 1202c98:	a0000005 	stb	zero,0(r20)
 1202c9c:	403ee83a 	callr	r8
 1202ca0:	88c0080c 	andi	r3,r17,32
 1202ca4:	18008226 	beq	r3,zero,1202eb0 <__ssvfscanf_r+0x1384>
 1202ca8:	dac09c17 	ldw	r11,624(sp)
 1202cac:	58c00017 	ldw	r3,0(r11)
 1202cb0:	5ac00104 	addi	r11,r11,4
 1202cb4:	dac09c15 	stw	r11,624(sp)
 1202cb8:	18800015 	stw	r2,0(r3)
 1202cbc:	da009f17 	ldw	r8,636(sp)
 1202cc0:	42000044 	addi	r8,r8,1
 1202cc4:	da009f15 	stw	r8,636(sp)
 1202cc8:	003f4706 	br	12029e8 <__alt_mem_instruction_tcm+0xff2029e8>
 1202ccc:	d8c09904 	addi	r3,sp,612
 1202cd0:	8400040c 	andi	r16,r16,16
 1202cd4:	1809883a 	mov	r4,r3
 1202cd8:	000b883a 	mov	r5,zero
 1202cdc:	01800204 	movi	r6,8
 1202ce0:	d8c09d15 	stw	r3,628(sp)
 1202ce4:	120145c0 	call	120145c <memset>
 1202ce8:	80006c26 	beq	r16,zero,1202e9c <__ssvfscanf_r+0x1370>
 1202cec:	dc409b04 	addi	r17,sp,620
 1202cf0:	0007883a 	mov	r3,zero
 1202cf4:	dc80a115 	stw	r18,644(sp)
 1202cf8:	8025883a 	mov	r18,r16
 1202cfc:	1821883a 	mov	r16,r3
 1202d00:	b8800017 	ldw	r2,0(r23)
 1202d04:	a8c00017 	ldw	r3,0(r21)
 1202d08:	10800003 	ldbu	r2,0(r2)
 1202d0c:	1885883a 	add	r2,r3,r2
 1202d10:	10800043 	ldbu	r2,1(r2)
 1202d14:	1080020c 	andi	r2,r2,8
 1202d18:	1000011e 	bne	r2,zero,1202d20 <__ssvfscanf_r+0x11f4>
 1202d1c:	e000f51e 	bne	fp,zero,12030f4 <__ssvfscanf_r+0x15c8>
 1202d20:	9021883a 	mov	r16,r18
 1202d24:	dc80a117 	ldw	r18,644(sp)
 1202d28:	803bbe1e 	bne	r16,zero,1201c24 <__alt_mem_instruction_tcm+0xff201c24>
 1202d2c:	dac09f17 	ldw	r11,636(sp)
 1202d30:	88000015 	stw	zero,0(r17)
 1202d34:	9023883a 	mov	r17,r18
 1202d38:	5ac00044 	addi	r11,r11,1
 1202d3c:	dac09f15 	stw	r11,636(sp)
 1202d40:	003bb906 	br	1201c28 <__alt_mem_instruction_tcm+0xff201c28>
 1202d44:	dac09904 	addi	r11,sp,612
 1202d48:	8400040c 	andi	r16,r16,16
 1202d4c:	5809883a 	mov	r4,r11
 1202d50:	000b883a 	mov	r5,zero
 1202d54:	01800204 	movi	r6,8
 1202d58:	dc00a115 	stw	r16,644(sp)
 1202d5c:	dac09d15 	stw	r11,628(sp)
 1202d60:	120145c0 	call	120145c <memset>
 1202d64:	dc00a117 	ldw	r16,644(sp)
 1202d68:	80004726 	beq	r16,zero,1202e88 <__ssvfscanf_r+0x135c>
 1202d6c:	0023883a 	mov	r17,zero
 1202d70:	dc00a117 	ldw	r16,644(sp)
 1202d74:	0029883a 	mov	r20,zero
 1202d78:	dc80a215 	stw	r18,648(sp)
 1202d7c:	12040200 	call	1204020 <__locale_mb_cur_max>
 1202d80:	153dbf26 	beq	r2,r20,1202480 <__alt_mem_instruction_tcm+0xff202480>
 1202d84:	b8800017 	ldw	r2,0(r23)
 1202d88:	b9000117 	ldw	r4,4(r23)
 1202d8c:	d8c09d17 	ldw	r3,628(sp)
 1202d90:	12400003 	ldbu	r9,0(r2)
 1202d94:	213fffc4 	addi	r4,r4,-1
 1202d98:	10800044 	addi	r2,r2,1
 1202d9c:	dac00104 	addi	r11,sp,4
 1202da0:	b9000115 	stw	r4,4(r23)
 1202da4:	b8800015 	stw	r2,0(r23)
 1202da8:	a4800044 	addi	r18,r20,1
 1202dac:	d8c00015 	stw	r3,0(sp)
 1202db0:	5d29883a 	add	r20,r11,r20
 1202db4:	b009883a 	mov	r4,r22
 1202db8:	880b883a 	mov	r5,r17
 1202dbc:	580d883a 	mov	r6,r11
 1202dc0:	900f883a 	mov	r7,r18
 1202dc4:	a2400005 	stb	r9,0(r20)
 1202dc8:	120428c0 	call	120428c <_mbrtowc_r>
 1202dcc:	013fffc4 	movi	r4,-1
 1202dd0:	113dab26 	beq	r2,r4,1202480 <__alt_mem_instruction_tcm+0xff202480>
 1202dd4:	10004f1e 	bne	r2,zero,1202f14 <__ssvfscanf_r+0x13e8>
 1202dd8:	8000011e 	bne	r16,zero,1202de0 <__ssvfscanf_r+0x12b4>
 1202ddc:	88000015 	stw	zero,0(r17)
 1202de0:	9ca7883a 	add	r19,r19,r18
 1202de4:	e73fffc4 	addi	fp,fp,-1
 1202de8:	80004e1e 	bne	r16,zero,1202f24 <__ssvfscanf_r+0x13f8>
 1202dec:	8c400104 	addi	r17,r17,4
 1202df0:	0029883a 	mov	r20,zero
 1202df4:	b8800117 	ldw	r2,4(r23)
 1202df8:	00801c0e 	bge	zero,r2,1202e6c <__ssvfscanf_r+0x1340>
 1202dfc:	e03fdf1e 	bne	fp,zero,1202d7c <__alt_mem_instruction_tcm+0xff202d7c>
 1202e00:	dc80a217 	ldw	r18,648(sp)
 1202e04:	da00a117 	ldw	r8,644(sp)
 1202e08:	403d1e26 	beq	r8,zero,1202284 <__alt_mem_instruction_tcm+0xff202284>
 1202e0c:	003b8506 	br	1201c24 <__alt_mem_instruction_tcm+0xff201c24>
 1202e10:	da009c17 	ldw	r8,624(sp)
 1202e14:	40800017 	ldw	r2,0(r8)
 1202e18:	42000104 	addi	r8,r8,4
 1202e1c:	da009c15 	stw	r8,624(sp)
 1202e20:	14400015 	stw	r17,0(r2)
 1202e24:	10c00115 	stw	r3,4(r2)
 1202e28:	003d1606 	br	1202284 <__alt_mem_instruction_tcm+0xff202284>
 1202e2c:	00be9fc4 	movi	r2,-1409
 1202e30:	88a2703a 	and	r17,r17,r2
 1202e34:	003ed706 	br	1202994 <__alt_mem_instruction_tcm+0xff202994>
 1202e38:	8821883a 	mov	r16,r17
 1202e3c:	00bfbfc4 	movi	r2,-257
 1202e40:	9023883a 	mov	r17,r18
 1202e44:	e00f883a 	mov	r7,fp
 1202e48:	4025883a 	mov	r18,r8
 1202e4c:	80a0703a 	and	r16,r16,r2
 1202e50:	003cc106 	br	1202158 <__alt_mem_instruction_tcm+0xff202158>
 1202e54:	8941c00c 	andi	r5,r17,1792
 1202e58:	0081c004 	movi	r2,1792
 1202e5c:	28bd2b1e 	bne	r5,r2,120230c <__alt_mem_instruction_tcm+0xff20230c>
 1202e60:	88e2703a 	and	r17,r17,r3
 1202e64:	05000044 	movi	r20,1
 1202e68:	003caa06 	br	1202114 <__alt_mem_instruction_tcm+0xff202114>
 1202e6c:	b009883a 	mov	r4,r22
 1202e70:	b80b883a 	mov	r5,r23
 1202e74:	12071b40 	call	12071b4 <__ssrefill_r>
 1202e78:	103fe026 	beq	r2,zero,1202dfc <__alt_mem_instruction_tcm+0xff202dfc>
 1202e7c:	dc80a217 	ldw	r18,648(sp)
 1202e80:	a03fe026 	beq	r20,zero,1202e04 <__alt_mem_instruction_tcm+0xff202e04>
 1202e84:	003d7e06 	br	1202480 <__alt_mem_instruction_tcm+0xff202480>
 1202e88:	da009c17 	ldw	r8,624(sp)
 1202e8c:	44400017 	ldw	r17,0(r8)
 1202e90:	42000104 	addi	r8,r8,4
 1202e94:	da009c15 	stw	r8,624(sp)
 1202e98:	003fb506 	br	1202d70 <__alt_mem_instruction_tcm+0xff202d70>
 1202e9c:	da009c17 	ldw	r8,624(sp)
 1202ea0:	44400017 	ldw	r17,0(r8)
 1202ea4:	42000104 	addi	r8,r8,4
 1202ea8:	da009c15 	stw	r8,624(sp)
 1202eac:	003f9006 	br	1202cf0 <__alt_mem_instruction_tcm+0xff202cf0>
 1202eb0:	88c0010c 	andi	r3,r17,4
 1202eb4:	18006726 	beq	r3,zero,1203054 <__ssvfscanf_r+0x1528>
 1202eb8:	da009c17 	ldw	r8,624(sp)
 1202ebc:	40c00017 	ldw	r3,0(r8)
 1202ec0:	42000104 	addi	r8,r8,4
 1202ec4:	da009c15 	stw	r8,624(sp)
 1202ec8:	1880000d 	sth	r2,0(r3)
 1202ecc:	003f7b06 	br	1202cbc <__alt_mem_instruction_tcm+0xff202cbc>
 1202ed0:	da00a417 	ldw	r8,656(sp)
 1202ed4:	000d883a 	mov	r6,zero
 1202ed8:	01c00284 	movi	r7,10
 1202edc:	b009883a 	mov	r4,r22
 1202ee0:	41400044 	addi	r5,r8,1
 1202ee4:	12065240 	call	1206524 <_strtol_r>
 1202ee8:	dac0a217 	ldw	r11,648(sp)
 1202eec:	d9c0a417 	ldw	r7,656(sp)
 1202ef0:	12cdc83a 	sub	r6,r2,r11
 1202ef4:	d88055c4 	addi	r2,sp,343
 1202ef8:	38800136 	bltu	r7,r2,1202f00 <__ssvfscanf_r+0x13d4>
 1202efc:	d9c05584 	addi	r7,sp,342
 1202f00:	01404874 	movhi	r5,289
 1202f04:	295db304 	addi	r5,r5,30412
 1202f08:	3809883a 	mov	r4,r7
 1202f0c:	1204db40 	call	1204db4 <sprintf>
 1202f10:	003ccd06 	br	1202248 <__alt_mem_instruction_tcm+0xff202248>
 1202f14:	017fff84 	movi	r5,-2
 1202f18:	117fb11e 	bne	r2,r5,1202de0 <__alt_mem_instruction_tcm+0xff202de0>
 1202f1c:	9029883a 	mov	r20,r18
 1202f20:	003fb406 	br	1202df4 <__alt_mem_instruction_tcm+0xff202df4>
 1202f24:	0029883a 	mov	r20,zero
 1202f28:	003fb206 	br	1202df4 <__alt_mem_instruction_tcm+0xff202df4>
 1202f2c:	e009883a 	mov	r4,fp
 1202f30:	2421c83a 	sub	r16,r4,r16
 1202f34:	803b4026 	beq	r16,zero,1201c38 <__alt_mem_instruction_tcm+0xff201c38>
 1202f38:	dac09f17 	ldw	r11,636(sp)
 1202f3c:	20000005 	stb	zero,0(r4)
 1202f40:	9c27883a 	add	r19,r19,r16
 1202f44:	5ac00044 	addi	r11,r11,1
 1202f48:	dac09f15 	stw	r11,636(sp)
 1202f4c:	003dea06 	br	12026f8 <__alt_mem_instruction_tcm+0xff2026f8>
 1202f50:	2809883a 	mov	r4,r5
 1202f54:	003ff606 	br	1202f30 <__alt_mem_instruction_tcm+0xff202f30>
 1202f58:	803d4926 	beq	r16,zero,1202480 <__alt_mem_instruction_tcm+0xff202480>
 1202f5c:	9c27883a 	add	r19,r19,r16
 1202f60:	003de506 	br	12026f8 <__alt_mem_instruction_tcm+0xff2026f8>
 1202f64:	da009c17 	ldw	r8,624(sp)
 1202f68:	ddc00015 	stw	r23,0(sp)
 1202f6c:	b009883a 	mov	r4,r22
 1202f70:	41400017 	ldw	r5,0(r8)
 1202f74:	01800044 	movi	r6,1
 1202f78:	e00f883a 	mov	r7,fp
 1202f7c:	12072240 	call	1207224 <_sfread_r>
 1202f80:	dac09c17 	ldw	r11,624(sp)
 1202f84:	58c00104 	addi	r3,r11,4
 1202f88:	103d3d26 	beq	r2,zero,1202480 <__alt_mem_instruction_tcm+0xff202480>
 1202f8c:	da009f17 	ldw	r8,636(sp)
 1202f90:	14e7883a 	add	r19,r2,r19
 1202f94:	d8c09c15 	stw	r3,624(sp)
 1202f98:	42000044 	addi	r8,r8,1
 1202f9c:	da009f15 	stw	r8,636(sp)
 1202fa0:	9023883a 	mov	r17,r18
 1202fa4:	003b2006 	br	1201c28 <__alt_mem_instruction_tcm+0xff201c28>
 1202fa8:	2839883a 	mov	fp,r5
 1202fac:	003f2406 	br	1202c40 <__alt_mem_instruction_tcm+0xff202c40>
 1202fb0:	b009883a 	mov	r4,r22
 1202fb4:	b80b883a 	mov	r5,r23
 1202fb8:	12071b40 	call	12071b4 <__ssrefill_r>
 1202fbc:	103bad26 	beq	r2,zero,1201e74 <__alt_mem_instruction_tcm+0xff201e74>
 1202fc0:	003d2f06 	br	1202480 <__alt_mem_instruction_tcm+0xff202480>
 1202fc4:	a17fffc7 	ldb	r5,-1(r20)
 1202fc8:	b009883a 	mov	r4,r22
 1202fcc:	b80d883a 	mov	r6,r23
 1202fd0:	a53fffc4 	addi	r20,r20,-1
 1202fd4:	12070bc0 	call	12070bc <_sungetc_r>
 1202fd8:	003e7f06 	br	12029d8 <__alt_mem_instruction_tcm+0xff2029d8>
 1202fdc:	90c00083 	ldbu	r3,2(r18)
 1202fe0:	84000094 	ori	r16,r16,2
 1202fe4:	94800084 	addi	r18,r18,2
 1202fe8:	003b1d06 	br	1201c60 <__alt_mem_instruction_tcm+0xff201c60>
 1202fec:	da009d17 	ldw	r8,628(sp)
 1202ff0:	dac0a117 	ldw	r11,644(sp)
 1202ff4:	42c5c83a 	sub	r2,r8,r11
 1202ff8:	008dc83a 	sub	r6,zero,r2
 1202ffc:	103fbd1e 	bne	r2,zero,1202ef4 <__alt_mem_instruction_tcm+0xff202ef4>
 1203000:	003c9106 	br	1202248 <__alt_mem_instruction_tcm+0xff202248>
 1203004:	80e0b03a 	or	r16,r16,r3
 1203008:	003d3d06 	br	1202500 <__alt_mem_instruction_tcm+0xff202500>
 120300c:	8080004c 	andi	r2,r16,1
 1203010:	10000a1e 	bne	r2,zero,120303c <__ssvfscanf_r+0x1510>
 1203014:	8400008c 	andi	r16,r16,2
 1203018:	80000826 	beq	r16,zero,120303c <__ssvfscanf_r+0x1510>
 120301c:	dac09c17 	ldw	r11,624(sp)
 1203020:	9807d7fa 	srai	r3,r19,31
 1203024:	58800017 	ldw	r2,0(r11)
 1203028:	5ac00104 	addi	r11,r11,4
 120302c:	dac09c15 	stw	r11,624(sp)
 1203030:	14c00015 	stw	r19,0(r2)
 1203034:	10c00115 	stw	r3,4(r2)
 1203038:	003afa06 	br	1201c24 <__alt_mem_instruction_tcm+0xff201c24>
 120303c:	da009c17 	ldw	r8,624(sp)
 1203040:	40800017 	ldw	r2,0(r8)
 1203044:	42000104 	addi	r8,r8,4
 1203048:	da009c15 	stw	r8,624(sp)
 120304c:	14c00015 	stw	r19,0(r2)
 1203050:	003af406 	br	1201c24 <__alt_mem_instruction_tcm+0xff201c24>
 1203054:	88c0004c 	andi	r3,r17,1
 1203058:	183f131e 	bne	r3,zero,1202ca8 <__alt_mem_instruction_tcm+0xff202ca8>
 120305c:	88c0008c 	andi	r3,r17,2
 1203060:	183f1126 	beq	r3,zero,1202ca8 <__alt_mem_instruction_tcm+0xff202ca8>
 1203064:	da00a017 	ldw	r8,640(sp)
 1203068:	02c04834 	movhi	r11,288
 120306c:	5adaaf04 	addi	r11,r11,27324
 1203070:	b009883a 	mov	r4,r22
 1203074:	d9400104 	addi	r5,sp,4
 1203078:	000d883a 	mov	r6,zero
 120307c:	d9c09e17 	ldw	r7,632(sp)
 1203080:	42c08226 	beq	r8,r11,120328c <__ssvfscanf_r+0x1760>
 1203084:	12067a80 	call	12067a8 <_strtoll_r>
 1203088:	da009c17 	ldw	r8,624(sp)
 120308c:	41000017 	ldw	r4,0(r8)
 1203090:	42000104 	addi	r8,r8,4
 1203094:	da009c15 	stw	r8,624(sp)
 1203098:	20800015 	stw	r2,0(r4)
 120309c:	20c00115 	stw	r3,4(r4)
 12030a0:	003f0606 	br	1202cbc <__alt_mem_instruction_tcm+0xff202cbc>
 12030a4:	da009c17 	ldw	r8,624(sp)
 12030a8:	180b883a 	mov	r5,r3
 12030ac:	8809883a 	mov	r4,r17
 12030b0:	45000017 	ldw	r20,0(r8)
 12030b4:	44000104 	addi	r16,r8,4
 12030b8:	d8c0aa15 	stw	r3,680(sp)
 12030bc:	1204c200 	call	1204c20 <__fpclassifyd>
 12030c0:	d8c0aa17 	ldw	r3,680(sp)
 12030c4:	10000626 	beq	r2,zero,12030e0 <__ssvfscanf_r+0x15b4>
 12030c8:	8809883a 	mov	r4,r17
 12030cc:	180b883a 	mov	r5,r3
 12030d0:	121250c0 	call	121250c <__truncdfsf2>
 12030d4:	a0800015 	stw	r2,0(r20)
 12030d8:	dc009c15 	stw	r16,624(sp)
 12030dc:	003c6906 	br	1202284 <__alt_mem_instruction_tcm+0xff202284>
 12030e0:	0009883a 	mov	r4,zero
 12030e4:	1204d540 	call	1204d54 <nanf>
 12030e8:	a0800015 	stw	r2,0(r20)
 12030ec:	dc009c15 	stw	r16,624(sp)
 12030f0:	003c6406 	br	1202284 <__alt_mem_instruction_tcm+0xff202284>
 12030f4:	12040200 	call	1204020 <__locale_mb_cur_max>
 12030f8:	143ce126 	beq	r2,r16,1202480 <__alt_mem_instruction_tcm+0xff202480>
 12030fc:	b8800017 	ldw	r2,0(r23)
 1203100:	b9000117 	ldw	r4,4(r23)
 1203104:	d8c09d17 	ldw	r3,628(sp)
 1203108:	12000003 	ldbu	r8,0(r2)
 120310c:	213fffc4 	addi	r4,r4,-1
 1203110:	10800044 	addi	r2,r2,1
 1203114:	dac00104 	addi	r11,sp,4
 1203118:	b9000115 	stw	r4,4(r23)
 120311c:	b8800015 	stw	r2,0(r23)
 1203120:	85000044 	addi	r20,r16,1
 1203124:	d8c00015 	stw	r3,0(sp)
 1203128:	5c21883a 	add	r16,r11,r16
 120312c:	b009883a 	mov	r4,r22
 1203130:	880b883a 	mov	r5,r17
 1203134:	580d883a 	mov	r6,r11
 1203138:	a00f883a 	mov	r7,r20
 120313c:	82000005 	stb	r8,0(r16)
 1203140:	120428c0 	call	120428c <_mbrtowc_r>
 1203144:	013fffc4 	movi	r4,-1
 1203148:	113ccd26 	beq	r2,r4,1202480 <__alt_mem_instruction_tcm+0xff202480>
 120314c:	1000131e 	bne	r2,zero,120319c <__ssvfscanf_r+0x1670>
 1203150:	88000015 	stw	zero,0(r17)
 1203154:	0009883a 	mov	r4,zero
 1203158:	1203f680 	call	1203f68 <iswspace>
 120315c:	10001d26 	beq	r2,zero,12031d4 <__ssvfscanf_r+0x16a8>
 1203160:	9021883a 	mov	r16,r18
 1203164:	dc80a117 	ldw	r18,644(sp)
 1203168:	a03eef26 	beq	r20,zero,1202d28 <__alt_mem_instruction_tcm+0xff202d28>
 120316c:	a53fffc4 	addi	r20,r20,-1
 1203170:	da000104 	addi	r8,sp,4
 1203174:	4505883a 	add	r2,r8,r20
 1203178:	11400003 	ldbu	r5,0(r2)
 120317c:	b009883a 	mov	r4,r22
 1203180:	b80d883a 	mov	r6,r23
 1203184:	12070bc0 	call	12070bc <_sungetc_r>
 1203188:	a03ff81e 	bne	r20,zero,120316c <__alt_mem_instruction_tcm+0xff20316c>
 120318c:	003ee606 	br	1202d28 <__alt_mem_instruction_tcm+0xff202d28>
 1203190:	88e2703a 	and	r17,r17,r3
 1203194:	04800044 	movi	r18,1
 1203198:	003bde06 	br	1202114 <__alt_mem_instruction_tcm+0xff202114>
 120319c:	017fff84 	movi	r5,-2
 12031a0:	1140121e 	bne	r2,r5,12031ec <__ssvfscanf_r+0x16c0>
 12031a4:	a021883a 	mov	r16,r20
 12031a8:	b8800117 	ldw	r2,4(r23)
 12031ac:	00bed416 	blt	zero,r2,1202d00 <__alt_mem_instruction_tcm+0xff202d00>
 12031b0:	b009883a 	mov	r4,r22
 12031b4:	b80b883a 	mov	r5,r23
 12031b8:	12071b40 	call	12071b4 <__ssrefill_r>
 12031bc:	103ed026 	beq	r2,zero,1202d00 <__alt_mem_instruction_tcm+0xff202d00>
 12031c0:	8007883a 	mov	r3,r16
 12031c4:	9021883a 	mov	r16,r18
 12031c8:	dc80a117 	ldw	r18,644(sp)
 12031cc:	183cac1e 	bne	r3,zero,1202480 <__alt_mem_instruction_tcm+0xff202480>
 12031d0:	003ed506 	br	1202d28 <__alt_mem_instruction_tcm+0xff202d28>
 12031d4:	9d27883a 	add	r19,r19,r20
 12031d8:	e73fffc4 	addi	fp,fp,-1
 12031dc:	9000051e 	bne	r18,zero,12031f4 <__ssvfscanf_r+0x16c8>
 12031e0:	8c400104 	addi	r17,r17,4
 12031e4:	0021883a 	mov	r16,zero
 12031e8:	003fef06 	br	12031a8 <__alt_mem_instruction_tcm+0xff2031a8>
 12031ec:	89000017 	ldw	r4,0(r17)
 12031f0:	003fd906 	br	1203158 <__alt_mem_instruction_tcm+0xff203158>
 12031f4:	0021883a 	mov	r16,zero
 12031f8:	003feb06 	br	12031a8 <__alt_mem_instruction_tcm+0xff2031a8>
 12031fc:	d9000104 	addi	r4,sp,4
 1203200:	b839883a 	mov	fp,r23
 1203204:	3821883a 	mov	r16,r7
 1203208:	21fa8b2e 	bgeu	r4,r7,1201c38 <__alt_mem_instruction_tcm+0xff201c38>
 120320c:	843fffc4 	addi	r16,r16,-1
 1203210:	81400007 	ldb	r5,0(r16)
 1203214:	b009883a 	mov	r4,r22
 1203218:	e00d883a 	mov	r6,fp
 120321c:	12070bc0 	call	12070bc <_sungetc_r>
 1203220:	d9400104 	addi	r5,sp,4
 1203224:	817ff91e 	bne	r16,r5,120320c <__alt_mem_instruction_tcm+0xff20320c>
 1203228:	003a8306 	br	1201c38 <__alt_mem_instruction_tcm+0xff201c38>
 120322c:	da000104 	addi	r8,sp,4
 1203230:	b839883a 	mov	fp,r23
 1203234:	3821883a 	mov	r16,r7
 1203238:	41fa7f2e 	bgeu	r8,r7,1201c38 <__alt_mem_instruction_tcm+0xff201c38>
 120323c:	843fffc4 	addi	r16,r16,-1
 1203240:	81400007 	ldb	r5,0(r16)
 1203244:	b009883a 	mov	r4,r22
 1203248:	e00d883a 	mov	r6,fp
 120324c:	12070bc0 	call	12070bc <_sungetc_r>
 1203250:	dac00104 	addi	r11,sp,4
 1203254:	82fff91e 	bne	r16,r11,120323c <__alt_mem_instruction_tcm+0xff20323c>
 1203258:	003a7706 	br	1201c38 <__alt_mem_instruction_tcm+0xff201c38>
 120325c:	d8800104 	addi	r2,sp,4
 1203260:	b839883a 	mov	fp,r23
 1203264:	382f883a 	mov	r23,r7
 1203268:	11fa732e 	bgeu	r2,r7,1201c38 <__alt_mem_instruction_tcm+0xff201c38>
 120326c:	bdffffc4 	addi	r23,r23,-1
 1203270:	b9400007 	ldb	r5,0(r23)
 1203274:	b009883a 	mov	r4,r22
 1203278:	e00d883a 	mov	r6,fp
 120327c:	12070bc0 	call	12070bc <_sungetc_r>
 1203280:	d8c00104 	addi	r3,sp,4
 1203284:	b8fff91e 	bne	r23,r3,120326c <__alt_mem_instruction_tcm+0xff20326c>
 1203288:	003a6b06 	br	1201c38 <__alt_mem_instruction_tcm+0xff201c38>
 120328c:	1206d680 	call	1206d68 <_strtoull_r>
 1203290:	003f7d06 	br	1203088 <__alt_mem_instruction_tcm+0xff203088>

01203294 <_write_r>:
 1203294:	defffd04 	addi	sp,sp,-12
 1203298:	dc000015 	stw	r16,0(sp)
 120329c:	040048b4 	movhi	r16,290
 12032a0:	dc400115 	stw	r17,4(sp)
 12032a4:	84263f04 	addi	r16,r16,-26372
 12032a8:	2023883a 	mov	r17,r4
 12032ac:	2809883a 	mov	r4,r5
 12032b0:	300b883a 	mov	r5,r6
 12032b4:	380d883a 	mov	r6,r7
 12032b8:	dfc00215 	stw	ra,8(sp)
 12032bc:	80000015 	stw	zero,0(r16)
 12032c0:	1212ed00 	call	1212ed0 <write>
 12032c4:	00ffffc4 	movi	r3,-1
 12032c8:	10c00526 	beq	r2,r3,12032e0 <_write_r+0x4c>
 12032cc:	dfc00217 	ldw	ra,8(sp)
 12032d0:	dc400117 	ldw	r17,4(sp)
 12032d4:	dc000017 	ldw	r16,0(sp)
 12032d8:	dec00304 	addi	sp,sp,12
 12032dc:	f800283a 	ret
 12032e0:	80c00017 	ldw	r3,0(r16)
 12032e4:	183ff926 	beq	r3,zero,12032cc <__alt_mem_instruction_tcm+0xff2032cc>
 12032e8:	88c00015 	stw	r3,0(r17)
 12032ec:	003ff706 	br	12032cc <__alt_mem_instruction_tcm+0xff2032cc>

012032f0 <_close_r>:
 12032f0:	defffd04 	addi	sp,sp,-12
 12032f4:	dc000015 	stw	r16,0(sp)
 12032f8:	040048b4 	movhi	r16,290
 12032fc:	dc400115 	stw	r17,4(sp)
 1203300:	84263f04 	addi	r16,r16,-26372
 1203304:	2023883a 	mov	r17,r4
 1203308:	2809883a 	mov	r4,r5
 120330c:	dfc00215 	stw	ra,8(sp)
 1203310:	80000015 	stw	zero,0(r16)
 1203314:	12127580 	call	1212758 <close>
 1203318:	00ffffc4 	movi	r3,-1
 120331c:	10c00526 	beq	r2,r3,1203334 <_close_r+0x44>
 1203320:	dfc00217 	ldw	ra,8(sp)
 1203324:	dc400117 	ldw	r17,4(sp)
 1203328:	dc000017 	ldw	r16,0(sp)
 120332c:	dec00304 	addi	sp,sp,12
 1203330:	f800283a 	ret
 1203334:	80c00017 	ldw	r3,0(r16)
 1203338:	183ff926 	beq	r3,zero,1203320 <__alt_mem_instruction_tcm+0xff203320>
 120333c:	88c00015 	stw	r3,0(r17)
 1203340:	003ff706 	br	1203320 <__alt_mem_instruction_tcm+0xff203320>

01203344 <_fclose_r>:
 1203344:	28003226 	beq	r5,zero,1203410 <_fclose_r+0xcc>
 1203348:	defffc04 	addi	sp,sp,-16
 120334c:	dc400115 	stw	r17,4(sp)
 1203350:	2023883a 	mov	r17,r4
 1203354:	dc000015 	stw	r16,0(sp)
 1203358:	dfc00315 	stw	ra,12(sp)
 120335c:	dc800215 	stw	r18,8(sp)
 1203360:	2821883a 	mov	r16,r5
 1203364:	12008e40 	call	12008e4 <__sfp_lock_acquire>
 1203368:	88000226 	beq	r17,zero,1203374 <_fclose_r+0x30>
 120336c:	88800e17 	ldw	r2,56(r17)
 1203370:	10002926 	beq	r2,zero,1203418 <_fclose_r+0xd4>
 1203374:	8080030f 	ldh	r2,12(r16)
 1203378:	10002226 	beq	r2,zero,1203404 <_fclose_r+0xc0>
 120337c:	8809883a 	mov	r4,r17
 1203380:	800b883a 	mov	r5,r16
 1203384:	12034580 	call	1203458 <_fflush_r>
 1203388:	1025883a 	mov	r18,r2
 120338c:	80800b17 	ldw	r2,44(r16)
 1203390:	10000426 	beq	r2,zero,12033a4 <_fclose_r+0x60>
 1203394:	81400717 	ldw	r5,28(r16)
 1203398:	8809883a 	mov	r4,r17
 120339c:	103ee83a 	callr	r2
 12033a0:	10002616 	blt	r2,zero,120343c <_fclose_r+0xf8>
 12033a4:	8080030b 	ldhu	r2,12(r16)
 12033a8:	1080200c 	andi	r2,r2,128
 12033ac:	10001f1e 	bne	r2,zero,120342c <_fclose_r+0xe8>
 12033b0:	81400c17 	ldw	r5,48(r16)
 12033b4:	28000526 	beq	r5,zero,12033cc <_fclose_r+0x88>
 12033b8:	80801004 	addi	r2,r16,64
 12033bc:	28800226 	beq	r5,r2,12033c8 <_fclose_r+0x84>
 12033c0:	8809883a 	mov	r4,r17
 12033c4:	12037d40 	call	12037d4 <_free_r>
 12033c8:	80000c15 	stw	zero,48(r16)
 12033cc:	81401117 	ldw	r5,68(r16)
 12033d0:	28000326 	beq	r5,zero,12033e0 <_fclose_r+0x9c>
 12033d4:	8809883a 	mov	r4,r17
 12033d8:	12037d40 	call	12037d4 <_free_r>
 12033dc:	80001115 	stw	zero,68(r16)
 12033e0:	8000030d 	sth	zero,12(r16)
 12033e4:	12008e80 	call	12008e8 <__sfp_lock_release>
 12033e8:	9005883a 	mov	r2,r18
 12033ec:	dfc00317 	ldw	ra,12(sp)
 12033f0:	dc800217 	ldw	r18,8(sp)
 12033f4:	dc400117 	ldw	r17,4(sp)
 12033f8:	dc000017 	ldw	r16,0(sp)
 12033fc:	dec00404 	addi	sp,sp,16
 1203400:	f800283a 	ret
 1203404:	12008e80 	call	12008e8 <__sfp_lock_release>
 1203408:	0005883a 	mov	r2,zero
 120340c:	003ff706 	br	12033ec <__alt_mem_instruction_tcm+0xff2033ec>
 1203410:	0005883a 	mov	r2,zero
 1203414:	f800283a 	ret
 1203418:	8809883a 	mov	r4,r17
 120341c:	12008d40 	call	12008d4 <__sinit>
 1203420:	8080030f 	ldh	r2,12(r16)
 1203424:	103fd51e 	bne	r2,zero,120337c <__alt_mem_instruction_tcm+0xff20337c>
 1203428:	003ff606 	br	1203404 <__alt_mem_instruction_tcm+0xff203404>
 120342c:	81400417 	ldw	r5,16(r16)
 1203430:	8809883a 	mov	r4,r17
 1203434:	12037d40 	call	12037d4 <_free_r>
 1203438:	003fdd06 	br	12033b0 <__alt_mem_instruction_tcm+0xff2033b0>
 120343c:	04bfffc4 	movi	r18,-1
 1203440:	003fd806 	br	12033a4 <__alt_mem_instruction_tcm+0xff2033a4>

01203444 <fclose>:
 1203444:	008048b4 	movhi	r2,290
 1203448:	10a62a04 	addi	r2,r2,-26456
 120344c:	200b883a 	mov	r5,r4
 1203450:	11000017 	ldw	r4,0(r2)
 1203454:	12033441 	jmpi	1203344 <_fclose_r>

01203458 <_fflush_r>:
 1203458:	defffb04 	addi	sp,sp,-20
 120345c:	dcc00315 	stw	r19,12(sp)
 1203460:	dc000015 	stw	r16,0(sp)
 1203464:	dfc00415 	stw	ra,16(sp)
 1203468:	dc800215 	stw	r18,8(sp)
 120346c:	dc400115 	stw	r17,4(sp)
 1203470:	2027883a 	mov	r19,r4
 1203474:	2821883a 	mov	r16,r5
 1203478:	20000226 	beq	r4,zero,1203484 <_fflush_r+0x2c>
 120347c:	20800e17 	ldw	r2,56(r4)
 1203480:	10005326 	beq	r2,zero,12035d0 <_fflush_r+0x178>
 1203484:	8080030b 	ldhu	r2,12(r16)
 1203488:	10ffffcc 	andi	r3,r2,65535
 120348c:	18e0001c 	xori	r3,r3,32768
 1203490:	18e00004 	addi	r3,r3,-32768
 1203494:	18002c26 	beq	r3,zero,1203548 <_fflush_r+0xf0>
 1203498:	10c0020c 	andi	r3,r2,8
 120349c:	1800321e 	bne	r3,zero,1203568 <_fflush_r+0x110>
 12034a0:	80c00117 	ldw	r3,4(r16)
 12034a4:	10820014 	ori	r2,r2,2048
 12034a8:	8080030d 	sth	r2,12(r16)
 12034ac:	00c0570e 	bge	zero,r3,120360c <_fflush_r+0x1b4>
 12034b0:	82000a17 	ldw	r8,40(r16)
 12034b4:	40002426 	beq	r8,zero,1203548 <_fflush_r+0xf0>
 12034b8:	9c400017 	ldw	r17,0(r19)
 12034bc:	10c4000c 	andi	r3,r2,4096
 12034c0:	98000015 	stw	zero,0(r19)
 12034c4:	18004626 	beq	r3,zero,12035e0 <_fflush_r+0x188>
 12034c8:	81801417 	ldw	r6,80(r16)
 12034cc:	10c0010c 	andi	r3,r2,4
 12034d0:	18000626 	beq	r3,zero,12034ec <_fflush_r+0x94>
 12034d4:	80c00117 	ldw	r3,4(r16)
 12034d8:	80800c17 	ldw	r2,48(r16)
 12034dc:	30cdc83a 	sub	r6,r6,r3
 12034e0:	10000226 	beq	r2,zero,12034ec <_fflush_r+0x94>
 12034e4:	80800f17 	ldw	r2,60(r16)
 12034e8:	308dc83a 	sub	r6,r6,r2
 12034ec:	81400717 	ldw	r5,28(r16)
 12034f0:	9809883a 	mov	r4,r19
 12034f4:	000f883a 	mov	r7,zero
 12034f8:	403ee83a 	callr	r8
 12034fc:	00ffffc4 	movi	r3,-1
 1203500:	10c04526 	beq	r2,r3,1203618 <_fflush_r+0x1c0>
 1203504:	80c0030b 	ldhu	r3,12(r16)
 1203508:	81000417 	ldw	r4,16(r16)
 120350c:	80000115 	stw	zero,4(r16)
 1203510:	197dffcc 	andi	r5,r3,63487
 1203514:	8140030d 	sth	r5,12(r16)
 1203518:	81000015 	stw	r4,0(r16)
 120351c:	18c4000c 	andi	r3,r3,4096
 1203520:	18000126 	beq	r3,zero,1203528 <_fflush_r+0xd0>
 1203524:	80801415 	stw	r2,80(r16)
 1203528:	81400c17 	ldw	r5,48(r16)
 120352c:	9c400015 	stw	r17,0(r19)
 1203530:	28000526 	beq	r5,zero,1203548 <_fflush_r+0xf0>
 1203534:	80801004 	addi	r2,r16,64
 1203538:	28800226 	beq	r5,r2,1203544 <_fflush_r+0xec>
 120353c:	9809883a 	mov	r4,r19
 1203540:	12037d40 	call	12037d4 <_free_r>
 1203544:	80000c15 	stw	zero,48(r16)
 1203548:	0005883a 	mov	r2,zero
 120354c:	dfc00417 	ldw	ra,16(sp)
 1203550:	dcc00317 	ldw	r19,12(sp)
 1203554:	dc800217 	ldw	r18,8(sp)
 1203558:	dc400117 	ldw	r17,4(sp)
 120355c:	dc000017 	ldw	r16,0(sp)
 1203560:	dec00504 	addi	sp,sp,20
 1203564:	f800283a 	ret
 1203568:	84800417 	ldw	r18,16(r16)
 120356c:	903ff626 	beq	r18,zero,1203548 <__alt_mem_instruction_tcm+0xff203548>
 1203570:	84400017 	ldw	r17,0(r16)
 1203574:	108000cc 	andi	r2,r2,3
 1203578:	84800015 	stw	r18,0(r16)
 120357c:	8ca3c83a 	sub	r17,r17,r18
 1203580:	10001526 	beq	r2,zero,12035d8 <_fflush_r+0x180>
 1203584:	0005883a 	mov	r2,zero
 1203588:	80800215 	stw	r2,8(r16)
 120358c:	04400316 	blt	zero,r17,120359c <_fflush_r+0x144>
 1203590:	003fed06 	br	1203548 <__alt_mem_instruction_tcm+0xff203548>
 1203594:	90a5883a 	add	r18,r18,r2
 1203598:	047feb0e 	bge	zero,r17,1203548 <__alt_mem_instruction_tcm+0xff203548>
 120359c:	80800917 	ldw	r2,36(r16)
 12035a0:	81400717 	ldw	r5,28(r16)
 12035a4:	880f883a 	mov	r7,r17
 12035a8:	900d883a 	mov	r6,r18
 12035ac:	9809883a 	mov	r4,r19
 12035b0:	103ee83a 	callr	r2
 12035b4:	88a3c83a 	sub	r17,r17,r2
 12035b8:	00bff616 	blt	zero,r2,1203594 <__alt_mem_instruction_tcm+0xff203594>
 12035bc:	80c0030b 	ldhu	r3,12(r16)
 12035c0:	00bfffc4 	movi	r2,-1
 12035c4:	18c01014 	ori	r3,r3,64
 12035c8:	80c0030d 	sth	r3,12(r16)
 12035cc:	003fdf06 	br	120354c <__alt_mem_instruction_tcm+0xff20354c>
 12035d0:	12008d40 	call	12008d4 <__sinit>
 12035d4:	003fab06 	br	1203484 <__alt_mem_instruction_tcm+0xff203484>
 12035d8:	80800517 	ldw	r2,20(r16)
 12035dc:	003fea06 	br	1203588 <__alt_mem_instruction_tcm+0xff203588>
 12035e0:	81400717 	ldw	r5,28(r16)
 12035e4:	000d883a 	mov	r6,zero
 12035e8:	9809883a 	mov	r4,r19
 12035ec:	01c00044 	movi	r7,1
 12035f0:	403ee83a 	callr	r8
 12035f4:	100d883a 	mov	r6,r2
 12035f8:	00bfffc4 	movi	r2,-1
 12035fc:	30801326 	beq	r6,r2,120364c <_fflush_r+0x1f4>
 1203600:	8080030b 	ldhu	r2,12(r16)
 1203604:	82000a17 	ldw	r8,40(r16)
 1203608:	003fb006 	br	12034cc <__alt_mem_instruction_tcm+0xff2034cc>
 120360c:	80c00f17 	ldw	r3,60(r16)
 1203610:	00ffa716 	blt	zero,r3,12034b0 <__alt_mem_instruction_tcm+0xff2034b0>
 1203614:	003fcc06 	br	1203548 <__alt_mem_instruction_tcm+0xff203548>
 1203618:	98c00017 	ldw	r3,0(r19)
 120361c:	183fb926 	beq	r3,zero,1203504 <__alt_mem_instruction_tcm+0xff203504>
 1203620:	01000744 	movi	r4,29
 1203624:	19000226 	beq	r3,r4,1203630 <_fflush_r+0x1d8>
 1203628:	01000584 	movi	r4,22
 120362c:	1900101e 	bne	r3,r4,1203670 <_fflush_r+0x218>
 1203630:	8080030b 	ldhu	r2,12(r16)
 1203634:	80c00417 	ldw	r3,16(r16)
 1203638:	80000115 	stw	zero,4(r16)
 120363c:	10bdffcc 	andi	r2,r2,63487
 1203640:	8080030d 	sth	r2,12(r16)
 1203644:	80c00015 	stw	r3,0(r16)
 1203648:	003fb706 	br	1203528 <__alt_mem_instruction_tcm+0xff203528>
 120364c:	98800017 	ldw	r2,0(r19)
 1203650:	103feb26 	beq	r2,zero,1203600 <__alt_mem_instruction_tcm+0xff203600>
 1203654:	00c00744 	movi	r3,29
 1203658:	10c00226 	beq	r2,r3,1203664 <_fflush_r+0x20c>
 120365c:	00c00584 	movi	r3,22
 1203660:	10ffd61e 	bne	r2,r3,12035bc <__alt_mem_instruction_tcm+0xff2035bc>
 1203664:	9c400015 	stw	r17,0(r19)
 1203668:	0005883a 	mov	r2,zero
 120366c:	003fb706 	br	120354c <__alt_mem_instruction_tcm+0xff20354c>
 1203670:	80c0030b 	ldhu	r3,12(r16)
 1203674:	18c01014 	ori	r3,r3,64
 1203678:	80c0030d 	sth	r3,12(r16)
 120367c:	003fb306 	br	120354c <__alt_mem_instruction_tcm+0xff20354c>

01203680 <fflush>:
 1203680:	20000526 	beq	r4,zero,1203698 <fflush+0x18>
 1203684:	008048b4 	movhi	r2,290
 1203688:	10a62a04 	addi	r2,r2,-26456
 120368c:	200b883a 	mov	r5,r4
 1203690:	11000017 	ldw	r4,0(r2)
 1203694:	12034581 	jmpi	1203458 <_fflush_r>
 1203698:	008048b4 	movhi	r2,290
 120369c:	10a62904 	addi	r2,r2,-26460
 12036a0:	11000017 	ldw	r4,0(r2)
 12036a4:	01404834 	movhi	r5,288
 12036a8:	294d1604 	addi	r5,r5,13400
 12036ac:	12009dc1 	jmpi	12009dc <_fwalk_reent>

012036b0 <_malloc_trim_r>:
 12036b0:	defffb04 	addi	sp,sp,-20
 12036b4:	dcc00315 	stw	r19,12(sp)
 12036b8:	04c048b4 	movhi	r19,290
 12036bc:	dc800215 	stw	r18,8(sp)
 12036c0:	dc400115 	stw	r17,4(sp)
 12036c4:	dc000015 	stw	r16,0(sp)
 12036c8:	dfc00415 	stw	ra,16(sp)
 12036cc:	2821883a 	mov	r16,r5
 12036d0:	9ce04604 	addi	r19,r19,-32488
 12036d4:	2025883a 	mov	r18,r4
 12036d8:	1212be40 	call	1212be4 <__malloc_lock>
 12036dc:	98800217 	ldw	r2,8(r19)
 12036e0:	14400117 	ldw	r17,4(r2)
 12036e4:	00bfff04 	movi	r2,-4
 12036e8:	88a2703a 	and	r17,r17,r2
 12036ec:	8c21c83a 	sub	r16,r17,r16
 12036f0:	8403fbc4 	addi	r16,r16,4079
 12036f4:	8020d33a 	srli	r16,r16,12
 12036f8:	0083ffc4 	movi	r2,4095
 12036fc:	843fffc4 	addi	r16,r16,-1
 1203700:	8020933a 	slli	r16,r16,12
 1203704:	1400060e 	bge	r2,r16,1203720 <_malloc_trim_r+0x70>
 1203708:	9009883a 	mov	r4,r18
 120370c:	000b883a 	mov	r5,zero
 1203710:	12018100 	call	1201810 <_sbrk_r>
 1203714:	98c00217 	ldw	r3,8(r19)
 1203718:	1c47883a 	add	r3,r3,r17
 120371c:	10c00a26 	beq	r2,r3,1203748 <_malloc_trim_r+0x98>
 1203720:	9009883a 	mov	r4,r18
 1203724:	1212c040 	call	1212c04 <__malloc_unlock>
 1203728:	0005883a 	mov	r2,zero
 120372c:	dfc00417 	ldw	ra,16(sp)
 1203730:	dcc00317 	ldw	r19,12(sp)
 1203734:	dc800217 	ldw	r18,8(sp)
 1203738:	dc400117 	ldw	r17,4(sp)
 120373c:	dc000017 	ldw	r16,0(sp)
 1203740:	dec00504 	addi	sp,sp,20
 1203744:	f800283a 	ret
 1203748:	9009883a 	mov	r4,r18
 120374c:	040bc83a 	sub	r5,zero,r16
 1203750:	12018100 	call	1201810 <_sbrk_r>
 1203754:	00ffffc4 	movi	r3,-1
 1203758:	10c00d26 	beq	r2,r3,1203790 <_malloc_trim_r+0xe0>
 120375c:	00c048b4 	movhi	r3,290
 1203760:	18e64a04 	addi	r3,r3,-26328
 1203764:	18800017 	ldw	r2,0(r3)
 1203768:	99000217 	ldw	r4,8(r19)
 120376c:	8c23c83a 	sub	r17,r17,r16
 1203770:	8c400054 	ori	r17,r17,1
 1203774:	1421c83a 	sub	r16,r2,r16
 1203778:	24400115 	stw	r17,4(r4)
 120377c:	9009883a 	mov	r4,r18
 1203780:	1c000015 	stw	r16,0(r3)
 1203784:	1212c040 	call	1212c04 <__malloc_unlock>
 1203788:	00800044 	movi	r2,1
 120378c:	003fe706 	br	120372c <__alt_mem_instruction_tcm+0xff20372c>
 1203790:	9009883a 	mov	r4,r18
 1203794:	000b883a 	mov	r5,zero
 1203798:	12018100 	call	1201810 <_sbrk_r>
 120379c:	99000217 	ldw	r4,8(r19)
 12037a0:	014003c4 	movi	r5,15
 12037a4:	1107c83a 	sub	r3,r2,r4
 12037a8:	28ffdd0e 	bge	r5,r3,1203720 <__alt_mem_instruction_tcm+0xff203720>
 12037ac:	014048b4 	movhi	r5,290
 12037b0:	29662b04 	addi	r5,r5,-26452
 12037b4:	29400017 	ldw	r5,0(r5)
 12037b8:	18c00054 	ori	r3,r3,1
 12037bc:	20c00115 	stw	r3,4(r4)
 12037c0:	00c048b4 	movhi	r3,290
 12037c4:	1145c83a 	sub	r2,r2,r5
 12037c8:	18e64a04 	addi	r3,r3,-26328
 12037cc:	18800015 	stw	r2,0(r3)
 12037d0:	003fd306 	br	1203720 <__alt_mem_instruction_tcm+0xff203720>

012037d4 <_free_r>:
 12037d4:	28004c26 	beq	r5,zero,1203908 <_free_r+0x134>
 12037d8:	defffd04 	addi	sp,sp,-12
 12037dc:	dc400115 	stw	r17,4(sp)
 12037e0:	dc000015 	stw	r16,0(sp)
 12037e4:	2023883a 	mov	r17,r4
 12037e8:	2821883a 	mov	r16,r5
 12037ec:	dfc00215 	stw	ra,8(sp)
 12037f0:	1212be40 	call	1212be4 <__malloc_lock>
 12037f4:	813fff17 	ldw	r4,-4(r16)
 12037f8:	00bfff84 	movi	r2,-2
 12037fc:	024048b4 	movhi	r9,290
 1203800:	81bffe04 	addi	r6,r16,-8
 1203804:	2084703a 	and	r2,r4,r2
 1203808:	4a604604 	addi	r9,r9,-32488
 120380c:	308b883a 	add	r5,r6,r2
 1203810:	2a000117 	ldw	r8,4(r5)
 1203814:	49c00217 	ldw	r7,8(r9)
 1203818:	00ffff04 	movi	r3,-4
 120381c:	40c6703a 	and	r3,r8,r3
 1203820:	39405326 	beq	r7,r5,1203970 <_free_r+0x19c>
 1203824:	28c00115 	stw	r3,4(r5)
 1203828:	2100004c 	andi	r4,r4,1
 120382c:	2000091e 	bne	r4,zero,1203854 <_free_r+0x80>
 1203830:	81fffe17 	ldw	r7,-8(r16)
 1203834:	4a000204 	addi	r8,r9,8
 1203838:	31cdc83a 	sub	r6,r6,r7
 120383c:	31000217 	ldw	r4,8(r6)
 1203840:	11c5883a 	add	r2,r2,r7
 1203844:	22006126 	beq	r4,r8,12039cc <_free_r+0x1f8>
 1203848:	31c00317 	ldw	r7,12(r6)
 120384c:	21c00315 	stw	r7,12(r4)
 1203850:	39000215 	stw	r4,8(r7)
 1203854:	28c9883a 	add	r4,r5,r3
 1203858:	21c00117 	ldw	r7,4(r4)
 120385c:	39c0004c 	andi	r7,r7,1
 1203860:	38000d1e 	bne	r7,zero,1203898 <_free_r+0xc4>
 1203864:	29000217 	ldw	r4,8(r5)
 1203868:	10c5883a 	add	r2,r2,r3
 120386c:	00c048b4 	movhi	r3,290
 1203870:	18e04804 	addi	r3,r3,-32480
 1203874:	20c07526 	beq	r4,r3,1203a4c <_free_r+0x278>
 1203878:	29c00317 	ldw	r7,12(r5)
 120387c:	11400054 	ori	r5,r2,1
 1203880:	3087883a 	add	r3,r6,r2
 1203884:	21c00315 	stw	r7,12(r4)
 1203888:	39000215 	stw	r4,8(r7)
 120388c:	31400115 	stw	r5,4(r6)
 1203890:	18800015 	stw	r2,0(r3)
 1203894:	00000406 	br	12038a8 <_free_r+0xd4>
 1203898:	10c00054 	ori	r3,r2,1
 120389c:	30c00115 	stw	r3,4(r6)
 12038a0:	3087883a 	add	r3,r6,r2
 12038a4:	18800015 	stw	r2,0(r3)
 12038a8:	00c07fc4 	movi	r3,511
 12038ac:	18801736 	bltu	r3,r2,120390c <_free_r+0x138>
 12038b0:	1004d0fa 	srli	r2,r2,3
 12038b4:	01400044 	movi	r5,1
 12038b8:	49000117 	ldw	r4,4(r9)
 12038bc:	1087883a 	add	r3,r2,r2
 12038c0:	18c7883a 	add	r3,r3,r3
 12038c4:	1005d0ba 	srai	r2,r2,2
 12038c8:	18c7883a 	add	r3,r3,r3
 12038cc:	1a47883a 	add	r3,r3,r9
 12038d0:	19c00217 	ldw	r7,8(r3)
 12038d4:	2884983a 	sll	r2,r5,r2
 12038d8:	30c00315 	stw	r3,12(r6)
 12038dc:	31c00215 	stw	r7,8(r6)
 12038e0:	1104b03a 	or	r2,r2,r4
 12038e4:	19800215 	stw	r6,8(r3)
 12038e8:	48800115 	stw	r2,4(r9)
 12038ec:	39800315 	stw	r6,12(r7)
 12038f0:	8809883a 	mov	r4,r17
 12038f4:	dfc00217 	ldw	ra,8(sp)
 12038f8:	dc400117 	ldw	r17,4(sp)
 12038fc:	dc000017 	ldw	r16,0(sp)
 1203900:	dec00304 	addi	sp,sp,12
 1203904:	1212c041 	jmpi	1212c04 <__malloc_unlock>
 1203908:	f800283a 	ret
 120390c:	1006d27a 	srli	r3,r2,9
 1203910:	01000104 	movi	r4,4
 1203914:	20c04036 	bltu	r4,r3,1203a18 <_free_r+0x244>
 1203918:	1006d1ba 	srli	r3,r2,6
 120391c:	19400e04 	addi	r5,r3,56
 1203920:	2947883a 	add	r3,r5,r5
 1203924:	18c7883a 	add	r3,r3,r3
 1203928:	18c7883a 	add	r3,r3,r3
 120392c:	1a49883a 	add	r4,r3,r9
 1203930:	20c00217 	ldw	r3,8(r4)
 1203934:	01c048b4 	movhi	r7,290
 1203938:	39e04604 	addi	r7,r7,-32488
 120393c:	19003b26 	beq	r3,r4,1203a2c <_free_r+0x258>
 1203940:	01ffff04 	movi	r7,-4
 1203944:	19400117 	ldw	r5,4(r3)
 1203948:	29ca703a 	and	r5,r5,r7
 120394c:	1140022e 	bgeu	r2,r5,1203958 <_free_r+0x184>
 1203950:	18c00217 	ldw	r3,8(r3)
 1203954:	20fffb1e 	bne	r4,r3,1203944 <__alt_mem_instruction_tcm+0xff203944>
 1203958:	18800317 	ldw	r2,12(r3)
 120395c:	30800315 	stw	r2,12(r6)
 1203960:	30c00215 	stw	r3,8(r6)
 1203964:	11800215 	stw	r6,8(r2)
 1203968:	19800315 	stw	r6,12(r3)
 120396c:	003fe006 	br	12038f0 <__alt_mem_instruction_tcm+0xff2038f0>
 1203970:	2100004c 	andi	r4,r4,1
 1203974:	1885883a 	add	r2,r3,r2
 1203978:	2000071e 	bne	r4,zero,1203998 <_free_r+0x1c4>
 120397c:	817ffe17 	ldw	r5,-8(r16)
 1203980:	314dc83a 	sub	r6,r6,r5
 1203984:	30c00317 	ldw	r3,12(r6)
 1203988:	31000217 	ldw	r4,8(r6)
 120398c:	1145883a 	add	r2,r2,r5
 1203990:	20c00315 	stw	r3,12(r4)
 1203994:	19000215 	stw	r4,8(r3)
 1203998:	10c00054 	ori	r3,r2,1
 120399c:	30c00115 	stw	r3,4(r6)
 12039a0:	00c048b4 	movhi	r3,290
 12039a4:	18e62c04 	addi	r3,r3,-26448
 12039a8:	18c00017 	ldw	r3,0(r3)
 12039ac:	49800215 	stw	r6,8(r9)
 12039b0:	10ffcf36 	bltu	r2,r3,12038f0 <__alt_mem_instruction_tcm+0xff2038f0>
 12039b4:	008048b4 	movhi	r2,290
 12039b8:	10a63e04 	addi	r2,r2,-26376
 12039bc:	11400017 	ldw	r5,0(r2)
 12039c0:	8809883a 	mov	r4,r17
 12039c4:	12036b00 	call	12036b0 <_malloc_trim_r>
 12039c8:	003fc906 	br	12038f0 <__alt_mem_instruction_tcm+0xff2038f0>
 12039cc:	28c9883a 	add	r4,r5,r3
 12039d0:	21000117 	ldw	r4,4(r4)
 12039d4:	2100004c 	andi	r4,r4,1
 12039d8:	20000a1e 	bne	r4,zero,1203a04 <_free_r+0x230>
 12039dc:	29000317 	ldw	r4,12(r5)
 12039e0:	29400217 	ldw	r5,8(r5)
 12039e4:	10c5883a 	add	r2,r2,r3
 12039e8:	10c00054 	ori	r3,r2,1
 12039ec:	29000315 	stw	r4,12(r5)
 12039f0:	21400215 	stw	r5,8(r4)
 12039f4:	30c00115 	stw	r3,4(r6)
 12039f8:	308d883a 	add	r6,r6,r2
 12039fc:	30800015 	stw	r2,0(r6)
 1203a00:	003fbb06 	br	12038f0 <__alt_mem_instruction_tcm+0xff2038f0>
 1203a04:	10c00054 	ori	r3,r2,1
 1203a08:	30c00115 	stw	r3,4(r6)
 1203a0c:	308d883a 	add	r6,r6,r2
 1203a10:	30800015 	stw	r2,0(r6)
 1203a14:	003fb606 	br	12038f0 <__alt_mem_instruction_tcm+0xff2038f0>
 1203a18:	01000504 	movi	r4,20
 1203a1c:	20c01436 	bltu	r4,r3,1203a70 <_free_r+0x29c>
 1203a20:	194016c4 	addi	r5,r3,91
 1203a24:	2947883a 	add	r3,r5,r5
 1203a28:	003fbe06 	br	1203924 <__alt_mem_instruction_tcm+0xff203924>
 1203a2c:	280bd0ba 	srai	r5,r5,2
 1203a30:	00800044 	movi	r2,1
 1203a34:	39000117 	ldw	r4,4(r7)
 1203a38:	114a983a 	sll	r5,r2,r5
 1203a3c:	1805883a 	mov	r2,r3
 1203a40:	2908b03a 	or	r4,r5,r4
 1203a44:	39000115 	stw	r4,4(r7)
 1203a48:	003fc406 	br	120395c <__alt_mem_instruction_tcm+0xff20395c>
 1203a4c:	49800515 	stw	r6,20(r9)
 1203a50:	49800415 	stw	r6,16(r9)
 1203a54:	10c00054 	ori	r3,r2,1
 1203a58:	31000315 	stw	r4,12(r6)
 1203a5c:	31000215 	stw	r4,8(r6)
 1203a60:	30c00115 	stw	r3,4(r6)
 1203a64:	308d883a 	add	r6,r6,r2
 1203a68:	30800015 	stw	r2,0(r6)
 1203a6c:	003fa006 	br	12038f0 <__alt_mem_instruction_tcm+0xff2038f0>
 1203a70:	01001504 	movi	r4,84
 1203a74:	20c00436 	bltu	r4,r3,1203a88 <_free_r+0x2b4>
 1203a78:	1006d33a 	srli	r3,r2,12
 1203a7c:	19401b84 	addi	r5,r3,110
 1203a80:	2947883a 	add	r3,r5,r5
 1203a84:	003fa706 	br	1203924 <__alt_mem_instruction_tcm+0xff203924>
 1203a88:	01005504 	movi	r4,340
 1203a8c:	20c00436 	bltu	r4,r3,1203aa0 <_free_r+0x2cc>
 1203a90:	1006d3fa 	srli	r3,r2,15
 1203a94:	19401dc4 	addi	r5,r3,119
 1203a98:	2947883a 	add	r3,r5,r5
 1203a9c:	003fa106 	br	1203924 <__alt_mem_instruction_tcm+0xff203924>
 1203aa0:	01015504 	movi	r4,1364
 1203aa4:	20c00436 	bltu	r4,r3,1203ab8 <_free_r+0x2e4>
 1203aa8:	1006d4ba 	srli	r3,r2,18
 1203aac:	19401f04 	addi	r5,r3,124
 1203ab0:	2947883a 	add	r3,r5,r5
 1203ab4:	003f9b06 	br	1203924 <__alt_mem_instruction_tcm+0xff203924>
 1203ab8:	00c03f04 	movi	r3,252
 1203abc:	01401f84 	movi	r5,126
 1203ac0:	003f9806 	br	1203924 <__alt_mem_instruction_tcm+0xff203924>

01203ac4 <__sfvwrite_r>:
 1203ac4:	30800217 	ldw	r2,8(r6)
 1203ac8:	10004526 	beq	r2,zero,1203be0 <__sfvwrite_r+0x11c>
 1203acc:	28c0030b 	ldhu	r3,12(r5)
 1203ad0:	defff404 	addi	sp,sp,-48
 1203ad4:	dd400715 	stw	r21,28(sp)
 1203ad8:	dcc00515 	stw	r19,20(sp)
 1203adc:	dc000215 	stw	r16,8(sp)
 1203ae0:	dfc00b15 	stw	ra,44(sp)
 1203ae4:	df000a15 	stw	fp,40(sp)
 1203ae8:	ddc00915 	stw	r23,36(sp)
 1203aec:	dd800815 	stw	r22,32(sp)
 1203af0:	dd000615 	stw	r20,24(sp)
 1203af4:	dc800415 	stw	r18,16(sp)
 1203af8:	dc400315 	stw	r17,12(sp)
 1203afc:	1880020c 	andi	r2,r3,8
 1203b00:	2821883a 	mov	r16,r5
 1203b04:	202b883a 	mov	r21,r4
 1203b08:	3027883a 	mov	r19,r6
 1203b0c:	10002526 	beq	r2,zero,1203ba4 <__sfvwrite_r+0xe0>
 1203b10:	28800417 	ldw	r2,16(r5)
 1203b14:	10002326 	beq	r2,zero,1203ba4 <__sfvwrite_r+0xe0>
 1203b18:	1880008c 	andi	r2,r3,2
 1203b1c:	9c400017 	ldw	r17,0(r19)
 1203b20:	10003126 	beq	r2,zero,1203be8 <__sfvwrite_r+0x124>
 1203b24:	0029883a 	mov	r20,zero
 1203b28:	0025883a 	mov	r18,zero
 1203b2c:	05810004 	movi	r22,1024
 1203b30:	a00d883a 	mov	r6,r20
 1203b34:	a809883a 	mov	r4,r21
 1203b38:	90002526 	beq	r18,zero,1203bd0 <__sfvwrite_r+0x10c>
 1203b3c:	900f883a 	mov	r7,r18
 1203b40:	81400717 	ldw	r5,28(r16)
 1203b44:	b480012e 	bgeu	r22,r18,1203b4c <__sfvwrite_r+0x88>
 1203b48:	01c10004 	movi	r7,1024
 1203b4c:	80800917 	ldw	r2,36(r16)
 1203b50:	103ee83a 	callr	r2
 1203b54:	0080510e 	bge	zero,r2,1203c9c <__sfvwrite_r+0x1d8>
 1203b58:	98c00217 	ldw	r3,8(r19)
 1203b5c:	a0a9883a 	add	r20,r20,r2
 1203b60:	90a5c83a 	sub	r18,r18,r2
 1203b64:	1885c83a 	sub	r2,r3,r2
 1203b68:	98800215 	stw	r2,8(r19)
 1203b6c:	103ff01e 	bne	r2,zero,1203b30 <__alt_mem_instruction_tcm+0xff203b30>
 1203b70:	0005883a 	mov	r2,zero
 1203b74:	dfc00b17 	ldw	ra,44(sp)
 1203b78:	df000a17 	ldw	fp,40(sp)
 1203b7c:	ddc00917 	ldw	r23,36(sp)
 1203b80:	dd800817 	ldw	r22,32(sp)
 1203b84:	dd400717 	ldw	r21,28(sp)
 1203b88:	dd000617 	ldw	r20,24(sp)
 1203b8c:	dcc00517 	ldw	r19,20(sp)
 1203b90:	dc800417 	ldw	r18,16(sp)
 1203b94:	dc400317 	ldw	r17,12(sp)
 1203b98:	dc000217 	ldw	r16,8(sp)
 1203b9c:	dec00c04 	addi	sp,sp,48
 1203ba0:	f800283a 	ret
 1203ba4:	a809883a 	mov	r4,r21
 1203ba8:	800b883a 	mov	r5,r16
 1203bac:	120a5c40 	call	120a5c4 <__swsetup_r>
 1203bb0:	80c0030b 	ldhu	r3,12(r16)
 1203bb4:	103fd826 	beq	r2,zero,1203b18 <__alt_mem_instruction_tcm+0xff203b18>
 1203bb8:	18c01014 	ori	r3,r3,64
 1203bbc:	80c0030d 	sth	r3,12(r16)
 1203bc0:	00c00244 	movi	r3,9
 1203bc4:	00bfffc4 	movi	r2,-1
 1203bc8:	a8c00015 	stw	r3,0(r21)
 1203bcc:	003fe906 	br	1203b74 <__alt_mem_instruction_tcm+0xff203b74>
 1203bd0:	8d000017 	ldw	r20,0(r17)
 1203bd4:	8c800117 	ldw	r18,4(r17)
 1203bd8:	8c400204 	addi	r17,r17,8
 1203bdc:	003fd406 	br	1203b30 <__alt_mem_instruction_tcm+0xff203b30>
 1203be0:	0005883a 	mov	r2,zero
 1203be4:	f800283a 	ret
 1203be8:	1880004c 	andi	r2,r3,1
 1203bec:	1000301e 	bne	r2,zero,1203cb0 <__sfvwrite_r+0x1ec>
 1203bf0:	002f883a 	mov	r23,zero
 1203bf4:	0025883a 	mov	r18,zero
 1203bf8:	90001c26 	beq	r18,zero,1203c6c <__sfvwrite_r+0x1a8>
 1203bfc:	1880800c 	andi	r2,r3,512
 1203c00:	85000217 	ldw	r20,8(r16)
 1203c04:	10006c26 	beq	r2,zero,1203db8 <__sfvwrite_r+0x2f4>
 1203c08:	a02d883a 	mov	r22,r20
 1203c0c:	95008536 	bltu	r18,r20,1203e24 <__sfvwrite_r+0x360>
 1203c10:	1881200c 	andi	r2,r3,1152
 1203c14:	10009d1e 	bne	r2,zero,1203e8c <__sfvwrite_r+0x3c8>
 1203c18:	81000017 	ldw	r4,0(r16)
 1203c1c:	a039883a 	mov	fp,r20
 1203c20:	9029883a 	mov	r20,r18
 1203c24:	b80b883a 	mov	r5,r23
 1203c28:	b00d883a 	mov	r6,r22
 1203c2c:	12044c80 	call	12044c8 <memmove>
 1203c30:	80c00217 	ldw	r3,8(r16)
 1203c34:	81000017 	ldw	r4,0(r16)
 1203c38:	9005883a 	mov	r2,r18
 1203c3c:	1f39c83a 	sub	fp,r3,fp
 1203c40:	258f883a 	add	r7,r4,r22
 1203c44:	87000215 	stw	fp,8(r16)
 1203c48:	81c00015 	stw	r7,0(r16)
 1203c4c:	98c00217 	ldw	r3,8(r19)
 1203c50:	b8af883a 	add	r23,r23,r2
 1203c54:	90a5c83a 	sub	r18,r18,r2
 1203c58:	1d05c83a 	sub	r2,r3,r20
 1203c5c:	98800215 	stw	r2,8(r19)
 1203c60:	103fc326 	beq	r2,zero,1203b70 <__alt_mem_instruction_tcm+0xff203b70>
 1203c64:	80c0030b 	ldhu	r3,12(r16)
 1203c68:	903fe41e 	bne	r18,zero,1203bfc <__alt_mem_instruction_tcm+0xff203bfc>
 1203c6c:	8dc00017 	ldw	r23,0(r17)
 1203c70:	8c800117 	ldw	r18,4(r17)
 1203c74:	8c400204 	addi	r17,r17,8
 1203c78:	003fdf06 	br	1203bf8 <__alt_mem_instruction_tcm+0xff203bf8>
 1203c7c:	12046800 	call	1204680 <_realloc_r>
 1203c80:	102d883a 	mov	r22,r2
 1203c84:	1000a01e 	bne	r2,zero,1203f08 <__sfvwrite_r+0x444>
 1203c88:	81400417 	ldw	r5,16(r16)
 1203c8c:	a809883a 	mov	r4,r21
 1203c90:	12037d40 	call	12037d4 <_free_r>
 1203c94:	00800304 	movi	r2,12
 1203c98:	a8800015 	stw	r2,0(r21)
 1203c9c:	80c0030b 	ldhu	r3,12(r16)
 1203ca0:	00bfffc4 	movi	r2,-1
 1203ca4:	18c01014 	ori	r3,r3,64
 1203ca8:	80c0030d 	sth	r3,12(r16)
 1203cac:	003fb106 	br	1203b74 <__alt_mem_instruction_tcm+0xff203b74>
 1203cb0:	0029883a 	mov	r20,zero
 1203cb4:	0011883a 	mov	r8,zero
 1203cb8:	0039883a 	mov	fp,zero
 1203cbc:	0025883a 	mov	r18,zero
 1203cc0:	90001f26 	beq	r18,zero,1203d40 <__sfvwrite_r+0x27c>
 1203cc4:	40006826 	beq	r8,zero,1203e68 <__sfvwrite_r+0x3a4>
 1203cc8:	a02f883a 	mov	r23,r20
 1203ccc:	9500012e 	bgeu	r18,r20,1203cd4 <__sfvwrite_r+0x210>
 1203cd0:	902f883a 	mov	r23,r18
 1203cd4:	81000017 	ldw	r4,0(r16)
 1203cd8:	80800417 	ldw	r2,16(r16)
 1203cdc:	b82d883a 	mov	r22,r23
 1203ce0:	81800217 	ldw	r6,8(r16)
 1203ce4:	81c00517 	ldw	r7,20(r16)
 1203ce8:	1100022e 	bgeu	r2,r4,1203cf4 <__sfvwrite_r+0x230>
 1203cec:	31c7883a 	add	r3,r6,r7
 1203cf0:	1dc01816 	blt	r3,r23,1203d54 <__sfvwrite_r+0x290>
 1203cf4:	b9c03f16 	blt	r23,r7,1203df4 <__sfvwrite_r+0x330>
 1203cf8:	80800917 	ldw	r2,36(r16)
 1203cfc:	81400717 	ldw	r5,28(r16)
 1203d00:	a809883a 	mov	r4,r21
 1203d04:	da000115 	stw	r8,4(sp)
 1203d08:	e00d883a 	mov	r6,fp
 1203d0c:	103ee83a 	callr	r2
 1203d10:	102d883a 	mov	r22,r2
 1203d14:	da000117 	ldw	r8,4(sp)
 1203d18:	00bfe00e 	bge	zero,r2,1203c9c <__alt_mem_instruction_tcm+0xff203c9c>
 1203d1c:	a5a9c83a 	sub	r20,r20,r22
 1203d20:	a0001f26 	beq	r20,zero,1203da0 <__sfvwrite_r+0x2dc>
 1203d24:	98800217 	ldw	r2,8(r19)
 1203d28:	e5b9883a 	add	fp,fp,r22
 1203d2c:	95a5c83a 	sub	r18,r18,r22
 1203d30:	15adc83a 	sub	r22,r2,r22
 1203d34:	9d800215 	stw	r22,8(r19)
 1203d38:	b03f8d26 	beq	r22,zero,1203b70 <__alt_mem_instruction_tcm+0xff203b70>
 1203d3c:	903fe11e 	bne	r18,zero,1203cc4 <__alt_mem_instruction_tcm+0xff203cc4>
 1203d40:	8f000017 	ldw	fp,0(r17)
 1203d44:	8c800117 	ldw	r18,4(r17)
 1203d48:	0011883a 	mov	r8,zero
 1203d4c:	8c400204 	addi	r17,r17,8
 1203d50:	003fdb06 	br	1203cc0 <__alt_mem_instruction_tcm+0xff203cc0>
 1203d54:	180d883a 	mov	r6,r3
 1203d58:	e00b883a 	mov	r5,fp
 1203d5c:	da000115 	stw	r8,4(sp)
 1203d60:	d8c00015 	stw	r3,0(sp)
 1203d64:	12044c80 	call	12044c8 <memmove>
 1203d68:	d8c00017 	ldw	r3,0(sp)
 1203d6c:	80800017 	ldw	r2,0(r16)
 1203d70:	a809883a 	mov	r4,r21
 1203d74:	800b883a 	mov	r5,r16
 1203d78:	10c5883a 	add	r2,r2,r3
 1203d7c:	80800015 	stw	r2,0(r16)
 1203d80:	d8c00015 	stw	r3,0(sp)
 1203d84:	12034580 	call	1203458 <_fflush_r>
 1203d88:	d8c00017 	ldw	r3,0(sp)
 1203d8c:	da000117 	ldw	r8,4(sp)
 1203d90:	103fc21e 	bne	r2,zero,1203c9c <__alt_mem_instruction_tcm+0xff203c9c>
 1203d94:	182d883a 	mov	r22,r3
 1203d98:	a5a9c83a 	sub	r20,r20,r22
 1203d9c:	a03fe11e 	bne	r20,zero,1203d24 <__alt_mem_instruction_tcm+0xff203d24>
 1203da0:	a809883a 	mov	r4,r21
 1203da4:	800b883a 	mov	r5,r16
 1203da8:	12034580 	call	1203458 <_fflush_r>
 1203dac:	103fbb1e 	bne	r2,zero,1203c9c <__alt_mem_instruction_tcm+0xff203c9c>
 1203db0:	0011883a 	mov	r8,zero
 1203db4:	003fdb06 	br	1203d24 <__alt_mem_instruction_tcm+0xff203d24>
 1203db8:	81000017 	ldw	r4,0(r16)
 1203dbc:	80800417 	ldw	r2,16(r16)
 1203dc0:	1100012e 	bgeu	r2,r4,1203dc8 <__sfvwrite_r+0x304>
 1203dc4:	a4805a36 	bltu	r20,r18,1203f30 <__sfvwrite_r+0x46c>
 1203dc8:	81c00517 	ldw	r7,20(r16)
 1203dcc:	91c01a36 	bltu	r18,r7,1203e38 <__sfvwrite_r+0x374>
 1203dd0:	80800917 	ldw	r2,36(r16)
 1203dd4:	81400717 	ldw	r5,28(r16)
 1203dd8:	a809883a 	mov	r4,r21
 1203ddc:	b80d883a 	mov	r6,r23
 1203de0:	103ee83a 	callr	r2
 1203de4:	1029883a 	mov	r20,r2
 1203de8:	00bfac0e 	bge	zero,r2,1203c9c <__alt_mem_instruction_tcm+0xff203c9c>
 1203dec:	a005883a 	mov	r2,r20
 1203df0:	003f9606 	br	1203c4c <__alt_mem_instruction_tcm+0xff203c4c>
 1203df4:	b80d883a 	mov	r6,r23
 1203df8:	e00b883a 	mov	r5,fp
 1203dfc:	da000115 	stw	r8,4(sp)
 1203e00:	12044c80 	call	12044c8 <memmove>
 1203e04:	80800217 	ldw	r2,8(r16)
 1203e08:	80c00017 	ldw	r3,0(r16)
 1203e0c:	da000117 	ldw	r8,4(sp)
 1203e10:	15c5c83a 	sub	r2,r2,r23
 1203e14:	1def883a 	add	r23,r3,r23
 1203e18:	80800215 	stw	r2,8(r16)
 1203e1c:	85c00015 	stw	r23,0(r16)
 1203e20:	003fbe06 	br	1203d1c <__alt_mem_instruction_tcm+0xff203d1c>
 1203e24:	81000017 	ldw	r4,0(r16)
 1203e28:	9039883a 	mov	fp,r18
 1203e2c:	9029883a 	mov	r20,r18
 1203e30:	902d883a 	mov	r22,r18
 1203e34:	003f7b06 	br	1203c24 <__alt_mem_instruction_tcm+0xff203c24>
 1203e38:	b80b883a 	mov	r5,r23
 1203e3c:	900d883a 	mov	r6,r18
 1203e40:	12044c80 	call	12044c8 <memmove>
 1203e44:	80c00217 	ldw	r3,8(r16)
 1203e48:	80800017 	ldw	r2,0(r16)
 1203e4c:	9029883a 	mov	r20,r18
 1203e50:	1c87c83a 	sub	r3,r3,r18
 1203e54:	1485883a 	add	r2,r2,r18
 1203e58:	80800015 	stw	r2,0(r16)
 1203e5c:	80c00215 	stw	r3,8(r16)
 1203e60:	9005883a 	mov	r2,r18
 1203e64:	003f7906 	br	1203c4c <__alt_mem_instruction_tcm+0xff203c4c>
 1203e68:	e009883a 	mov	r4,fp
 1203e6c:	01400284 	movi	r5,10
 1203e70:	900d883a 	mov	r6,r18
 1203e74:	120123c0 	call	120123c <memchr>
 1203e78:	10003826 	beq	r2,zero,1203f5c <__sfvwrite_r+0x498>
 1203e7c:	10800044 	addi	r2,r2,1
 1203e80:	1729c83a 	sub	r20,r2,fp
 1203e84:	02000044 	movi	r8,1
 1203e88:	003f8f06 	br	1203cc8 <__alt_mem_instruction_tcm+0xff203cc8>
 1203e8c:	80800517 	ldw	r2,20(r16)
 1203e90:	81400417 	ldw	r5,16(r16)
 1203e94:	87000017 	ldw	fp,0(r16)
 1203e98:	10a9883a 	add	r20,r2,r2
 1203e9c:	a085883a 	add	r2,r20,r2
 1203ea0:	1028d7fa 	srli	r20,r2,31
 1203ea4:	e179c83a 	sub	fp,fp,r5
 1203ea8:	e1000044 	addi	r4,fp,1
 1203eac:	a085883a 	add	r2,r20,r2
 1203eb0:	1029d07a 	srai	r20,r2,1
 1203eb4:	2485883a 	add	r2,r4,r18
 1203eb8:	a00d883a 	mov	r6,r20
 1203ebc:	a080022e 	bgeu	r20,r2,1203ec8 <__sfvwrite_r+0x404>
 1203ec0:	1029883a 	mov	r20,r2
 1203ec4:	100d883a 	mov	r6,r2
 1203ec8:	18c1000c 	andi	r3,r3,1024
 1203ecc:	a809883a 	mov	r4,r21
 1203ed0:	183f6a26 	beq	r3,zero,1203c7c <__alt_mem_instruction_tcm+0xff203c7c>
 1203ed4:	300b883a 	mov	r5,r6
 1203ed8:	1200a940 	call	1200a94 <_malloc_r>
 1203edc:	102d883a 	mov	r22,r2
 1203ee0:	103f6c26 	beq	r2,zero,1203c94 <__alt_mem_instruction_tcm+0xff203c94>
 1203ee4:	81400417 	ldw	r5,16(r16)
 1203ee8:	1009883a 	mov	r4,r2
 1203eec:	e00d883a 	mov	r6,fp
 1203ef0:	12013240 	call	1201324 <memcpy>
 1203ef4:	8080030b 	ldhu	r2,12(r16)
 1203ef8:	00fedfc4 	movi	r3,-1153
 1203efc:	10c4703a 	and	r2,r2,r3
 1203f00:	10802014 	ori	r2,r2,128
 1203f04:	8080030d 	sth	r2,12(r16)
 1203f08:	b709883a 	add	r4,r22,fp
 1203f0c:	a707c83a 	sub	r3,r20,fp
 1203f10:	85800415 	stw	r22,16(r16)
 1203f14:	85000515 	stw	r20,20(r16)
 1203f18:	81000015 	stw	r4,0(r16)
 1203f1c:	9039883a 	mov	fp,r18
 1203f20:	80c00215 	stw	r3,8(r16)
 1203f24:	9029883a 	mov	r20,r18
 1203f28:	902d883a 	mov	r22,r18
 1203f2c:	003f3d06 	br	1203c24 <__alt_mem_instruction_tcm+0xff203c24>
 1203f30:	b80b883a 	mov	r5,r23
 1203f34:	a00d883a 	mov	r6,r20
 1203f38:	12044c80 	call	12044c8 <memmove>
 1203f3c:	80800017 	ldw	r2,0(r16)
 1203f40:	a809883a 	mov	r4,r21
 1203f44:	800b883a 	mov	r5,r16
 1203f48:	1505883a 	add	r2,r2,r20
 1203f4c:	80800015 	stw	r2,0(r16)
 1203f50:	12034580 	call	1203458 <_fflush_r>
 1203f54:	103fa526 	beq	r2,zero,1203dec <__alt_mem_instruction_tcm+0xff203dec>
 1203f58:	003f5006 	br	1203c9c <__alt_mem_instruction_tcm+0xff203c9c>
 1203f5c:	95000044 	addi	r20,r18,1
 1203f60:	02000044 	movi	r8,1
 1203f64:	003f5806 	br	1203cc8 <__alt_mem_instruction_tcm+0xff203cc8>

01203f68 <iswspace>:
 1203f68:	00803fc4 	movi	r2,255
 1203f6c:	11000836 	bltu	r2,r4,1203f90 <iswspace+0x28>
 1203f70:	008048b4 	movhi	r2,290
 1203f74:	10a62d04 	addi	r2,r2,-26444
 1203f78:	10800017 	ldw	r2,0(r2)
 1203f7c:	1109883a 	add	r4,r2,r4
 1203f80:	20800043 	ldbu	r2,1(r4)
 1203f84:	1080020c 	andi	r2,r2,8
 1203f88:	10803fcc 	andi	r2,r2,255
 1203f8c:	f800283a 	ret
 1203f90:	0005883a 	mov	r2,zero
 1203f94:	f800283a 	ret

01203f98 <_setlocale_r>:
 1203f98:	30001b26 	beq	r6,zero,1204008 <_setlocale_r+0x70>
 1203f9c:	01404874 	movhi	r5,289
 1203fa0:	defffe04 	addi	sp,sp,-8
 1203fa4:	295e5e04 	addi	r5,r5,31096
 1203fa8:	3009883a 	mov	r4,r6
 1203fac:	dc000015 	stw	r16,0(sp)
 1203fb0:	dfc00115 	stw	ra,4(sp)
 1203fb4:	3021883a 	mov	r16,r6
 1203fb8:	1204e200 	call	1204e20 <strcmp>
 1203fbc:	1000061e 	bne	r2,zero,1203fd8 <_setlocale_r+0x40>
 1203fc0:	00804874 	movhi	r2,289
 1203fc4:	109db104 	addi	r2,r2,30404
 1203fc8:	dfc00117 	ldw	ra,4(sp)
 1203fcc:	dc000017 	ldw	r16,0(sp)
 1203fd0:	dec00204 	addi	sp,sp,8
 1203fd4:	f800283a 	ret
 1203fd8:	01404874 	movhi	r5,289
 1203fdc:	295db104 	addi	r5,r5,30404
 1203fe0:	8009883a 	mov	r4,r16
 1203fe4:	1204e200 	call	1204e20 <strcmp>
 1203fe8:	103ff526 	beq	r2,zero,1203fc0 <__alt_mem_instruction_tcm+0xff203fc0>
 1203fec:	01404874 	movhi	r5,289
 1203ff0:	295e8004 	addi	r5,r5,31232
 1203ff4:	8009883a 	mov	r4,r16
 1203ff8:	1204e200 	call	1204e20 <strcmp>
 1203ffc:	103ff026 	beq	r2,zero,1203fc0 <__alt_mem_instruction_tcm+0xff203fc0>
 1204000:	0005883a 	mov	r2,zero
 1204004:	003ff006 	br	1203fc8 <__alt_mem_instruction_tcm+0xff203fc8>
 1204008:	00804874 	movhi	r2,289
 120400c:	109db104 	addi	r2,r2,30404
 1204010:	f800283a 	ret

01204014 <__locale_charset>:
 1204014:	008048b4 	movhi	r2,290
 1204018:	10a15004 	addi	r2,r2,-31424
 120401c:	f800283a 	ret

01204020 <__locale_mb_cur_max>:
 1204020:	008048b4 	movhi	r2,290
 1204024:	10a62e04 	addi	r2,r2,-26440
 1204028:	10800017 	ldw	r2,0(r2)
 120402c:	f800283a 	ret

01204030 <__locale_msgcharset>:
 1204030:	008048b4 	movhi	r2,290
 1204034:	10a14804 	addi	r2,r2,-31456
 1204038:	f800283a 	ret

0120403c <__locale_cjk_lang>:
 120403c:	0005883a 	mov	r2,zero
 1204040:	f800283a 	ret

01204044 <_localeconv_r>:
 1204044:	008048b4 	movhi	r2,290
 1204048:	10a15804 	addi	r2,r2,-31392
 120404c:	f800283a 	ret

01204050 <setlocale>:
 1204050:	00c048b4 	movhi	r3,290
 1204054:	18e62a04 	addi	r3,r3,-26456
 1204058:	2005883a 	mov	r2,r4
 120405c:	19000017 	ldw	r4,0(r3)
 1204060:	280d883a 	mov	r6,r5
 1204064:	100b883a 	mov	r5,r2
 1204068:	1203f981 	jmpi	1203f98 <_setlocale_r>

0120406c <localeconv>:
 120406c:	008048b4 	movhi	r2,290
 1204070:	10a15804 	addi	r2,r2,-31392
 1204074:	f800283a 	ret

01204078 <_lseek_r>:
 1204078:	defffd04 	addi	sp,sp,-12
 120407c:	dc000015 	stw	r16,0(sp)
 1204080:	040048b4 	movhi	r16,290
 1204084:	dc400115 	stw	r17,4(sp)
 1204088:	84263f04 	addi	r16,r16,-26372
 120408c:	2023883a 	mov	r17,r4
 1204090:	2809883a 	mov	r4,r5
 1204094:	300b883a 	mov	r5,r6
 1204098:	380d883a 	mov	r6,r7
 120409c:	dfc00215 	stw	ra,8(sp)
 12040a0:	80000015 	stw	zero,0(r16)
 12040a4:	1212a980 	call	1212a98 <lseek>
 12040a8:	00ffffc4 	movi	r3,-1
 12040ac:	10c00526 	beq	r2,r3,12040c4 <_lseek_r+0x4c>
 12040b0:	dfc00217 	ldw	ra,8(sp)
 12040b4:	dc400117 	ldw	r17,4(sp)
 12040b8:	dc000017 	ldw	r16,0(sp)
 12040bc:	dec00304 	addi	sp,sp,12
 12040c0:	f800283a 	ret
 12040c4:	80c00017 	ldw	r3,0(r16)
 12040c8:	183ff926 	beq	r3,zero,12040b0 <__alt_mem_instruction_tcm+0xff2040b0>
 12040cc:	88c00015 	stw	r3,0(r17)
 12040d0:	003ff706 	br	12040b0 <__alt_mem_instruction_tcm+0xff2040b0>

012040d4 <__smakebuf_r>:
 12040d4:	2880030b 	ldhu	r2,12(r5)
 12040d8:	10c0008c 	andi	r3,r2,2
 12040dc:	1800401e 	bne	r3,zero,12041e0 <__smakebuf_r+0x10c>
 12040e0:	deffec04 	addi	sp,sp,-80
 12040e4:	dc000f15 	stw	r16,60(sp)
 12040e8:	2821883a 	mov	r16,r5
 12040ec:	2940038f 	ldh	r5,14(r5)
 12040f0:	dc401015 	stw	r17,64(sp)
 12040f4:	dfc01315 	stw	ra,76(sp)
 12040f8:	dcc01215 	stw	r19,72(sp)
 12040fc:	dc801115 	stw	r18,68(sp)
 1204100:	2023883a 	mov	r17,r4
 1204104:	28001b16 	blt	r5,zero,1204174 <__smakebuf_r+0xa0>
 1204108:	d80d883a 	mov	r6,sp
 120410c:	120c01c0 	call	120c01c <_fstat_r>
 1204110:	10001716 	blt	r2,zero,1204170 <__smakebuf_r+0x9c>
 1204114:	d8800117 	ldw	r2,4(sp)
 1204118:	00e00014 	movui	r3,32768
 120411c:	10bc000c 	andi	r2,r2,61440
 1204120:	10c03726 	beq	r2,r3,1204200 <__smakebuf_r+0x12c>
 1204124:	80c0030b 	ldhu	r3,12(r16)
 1204128:	18c20014 	ori	r3,r3,2048
 120412c:	80c0030d 	sth	r3,12(r16)
 1204130:	00c80004 	movi	r3,8192
 1204134:	10c03c1e 	bne	r2,r3,1204228 <__smakebuf_r+0x154>
 1204138:	8140038f 	ldh	r5,14(r16)
 120413c:	8809883a 	mov	r4,r17
 1204140:	120cca80 	call	120cca8 <_isatty_r>
 1204144:	10004e26 	beq	r2,zero,1204280 <__smakebuf_r+0x1ac>
 1204148:	8080030b 	ldhu	r2,12(r16)
 120414c:	04c00044 	movi	r19,1
 1204150:	80c010c4 	addi	r3,r16,67
 1204154:	14c4b03a 	or	r2,r2,r19
 1204158:	8080030d 	sth	r2,12(r16)
 120415c:	80c00015 	stw	r3,0(r16)
 1204160:	80c00415 	stw	r3,16(r16)
 1204164:	84c00515 	stw	r19,20(r16)
 1204168:	04810004 	movi	r18,1024
 120416c:	00000706 	br	120418c <__smakebuf_r+0xb8>
 1204170:	8080030b 	ldhu	r2,12(r16)
 1204174:	10c0200c 	andi	r3,r2,128
 1204178:	18001f1e 	bne	r3,zero,12041f8 <__smakebuf_r+0x124>
 120417c:	04810004 	movi	r18,1024
 1204180:	10820014 	ori	r2,r2,2048
 1204184:	8080030d 	sth	r2,12(r16)
 1204188:	0027883a 	mov	r19,zero
 120418c:	8809883a 	mov	r4,r17
 1204190:	900b883a 	mov	r5,r18
 1204194:	1200a940 	call	1200a94 <_malloc_r>
 1204198:	10002e26 	beq	r2,zero,1204254 <__smakebuf_r+0x180>
 120419c:	80c0030b 	ldhu	r3,12(r16)
 12041a0:	01004834 	movhi	r4,288
 12041a4:	21016504 	addi	r4,r4,1428
 12041a8:	89000f15 	stw	r4,60(r17)
 12041ac:	18c02014 	ori	r3,r3,128
 12041b0:	80c0030d 	sth	r3,12(r16)
 12041b4:	80800015 	stw	r2,0(r16)
 12041b8:	80800415 	stw	r2,16(r16)
 12041bc:	84800515 	stw	r18,20(r16)
 12041c0:	98001c1e 	bne	r19,zero,1204234 <__smakebuf_r+0x160>
 12041c4:	dfc01317 	ldw	ra,76(sp)
 12041c8:	dcc01217 	ldw	r19,72(sp)
 12041cc:	dc801117 	ldw	r18,68(sp)
 12041d0:	dc401017 	ldw	r17,64(sp)
 12041d4:	dc000f17 	ldw	r16,60(sp)
 12041d8:	dec01404 	addi	sp,sp,80
 12041dc:	f800283a 	ret
 12041e0:	288010c4 	addi	r2,r5,67
 12041e4:	28800015 	stw	r2,0(r5)
 12041e8:	28800415 	stw	r2,16(r5)
 12041ec:	00800044 	movi	r2,1
 12041f0:	28800515 	stw	r2,20(r5)
 12041f4:	f800283a 	ret
 12041f8:	04801004 	movi	r18,64
 12041fc:	003fe006 	br	1204180 <__alt_mem_instruction_tcm+0xff204180>
 1204200:	81000a17 	ldw	r4,40(r16)
 1204204:	00c04834 	movhi	r3,288
 1204208:	18c68c04 	addi	r3,r3,6704
 120420c:	20ffc51e 	bne	r4,r3,1204124 <__alt_mem_instruction_tcm+0xff204124>
 1204210:	80c0030b 	ldhu	r3,12(r16)
 1204214:	01010004 	movi	r4,1024
 1204218:	81001315 	stw	r4,76(r16)
 120421c:	1906b03a 	or	r3,r3,r4
 1204220:	80c0030d 	sth	r3,12(r16)
 1204224:	003fc206 	br	1204130 <__alt_mem_instruction_tcm+0xff204130>
 1204228:	0027883a 	mov	r19,zero
 120422c:	04810004 	movi	r18,1024
 1204230:	003fd606 	br	120418c <__alt_mem_instruction_tcm+0xff20418c>
 1204234:	8140038f 	ldh	r5,14(r16)
 1204238:	8809883a 	mov	r4,r17
 120423c:	120cca80 	call	120cca8 <_isatty_r>
 1204240:	103fe026 	beq	r2,zero,12041c4 <__alt_mem_instruction_tcm+0xff2041c4>
 1204244:	8080030b 	ldhu	r2,12(r16)
 1204248:	10800054 	ori	r2,r2,1
 120424c:	8080030d 	sth	r2,12(r16)
 1204250:	003fdc06 	br	12041c4 <__alt_mem_instruction_tcm+0xff2041c4>
 1204254:	8080030b 	ldhu	r2,12(r16)
 1204258:	10c0800c 	andi	r3,r2,512
 120425c:	183fd91e 	bne	r3,zero,12041c4 <__alt_mem_instruction_tcm+0xff2041c4>
 1204260:	10800094 	ori	r2,r2,2
 1204264:	80c010c4 	addi	r3,r16,67
 1204268:	8080030d 	sth	r2,12(r16)
 120426c:	00800044 	movi	r2,1
 1204270:	80c00015 	stw	r3,0(r16)
 1204274:	80c00415 	stw	r3,16(r16)
 1204278:	80800515 	stw	r2,20(r16)
 120427c:	003fd106 	br	12041c4 <__alt_mem_instruction_tcm+0xff2041c4>
 1204280:	04c00044 	movi	r19,1
 1204284:	04810004 	movi	r18,1024
 1204288:	003fc006 	br	120418c <__alt_mem_instruction_tcm+0xff20418c>

0120428c <_mbrtowc_r>:
 120428c:	defff704 	addi	sp,sp,-36
 1204290:	008048b4 	movhi	r2,290
 1204294:	dc800715 	stw	r18,28(sp)
 1204298:	dc400615 	stw	r17,24(sp)
 120429c:	dc000515 	stw	r16,20(sp)
 12042a0:	10a62f04 	addi	r2,r2,-26436
 12042a4:	dfc00815 	stw	ra,32(sp)
 12042a8:	2021883a 	mov	r16,r4
 12042ac:	dc400917 	ldw	r17,36(sp)
 12042b0:	14800017 	ldw	r18,0(r2)
 12042b4:	30001626 	beq	r6,zero,1204310 <_mbrtowc_r+0x84>
 12042b8:	d9400215 	stw	r5,8(sp)
 12042bc:	d9800315 	stw	r6,12(sp)
 12042c0:	d9c00415 	stw	r7,16(sp)
 12042c4:	12040140 	call	1204014 <__locale_charset>
 12042c8:	d9400217 	ldw	r5,8(sp)
 12042cc:	d9800317 	ldw	r6,12(sp)
 12042d0:	d9c00417 	ldw	r7,16(sp)
 12042d4:	d8800015 	stw	r2,0(sp)
 12042d8:	dc400115 	stw	r17,4(sp)
 12042dc:	8009883a 	mov	r4,r16
 12042e0:	903ee83a 	callr	r18
 12042e4:	00ffffc4 	movi	r3,-1
 12042e8:	10c0031e 	bne	r2,r3,12042f8 <_mbrtowc_r+0x6c>
 12042ec:	88000015 	stw	zero,0(r17)
 12042f0:	00c02284 	movi	r3,138
 12042f4:	80c00015 	stw	r3,0(r16)
 12042f8:	dfc00817 	ldw	ra,32(sp)
 12042fc:	dc800717 	ldw	r18,28(sp)
 1204300:	dc400617 	ldw	r17,24(sp)
 1204304:	dc000517 	ldw	r16,20(sp)
 1204308:	dec00904 	addi	sp,sp,36
 120430c:	f800283a 	ret
 1204310:	12040140 	call	1204014 <__locale_charset>
 1204314:	01804874 	movhi	r6,289
 1204318:	319e8004 	addi	r6,r6,31232
 120431c:	d8800015 	stw	r2,0(sp)
 1204320:	dc400115 	stw	r17,4(sp)
 1204324:	8009883a 	mov	r4,r16
 1204328:	000b883a 	mov	r5,zero
 120432c:	01c00044 	movi	r7,1
 1204330:	903ee83a 	callr	r18
 1204334:	003feb06 	br	12042e4 <__alt_mem_instruction_tcm+0xff2042e4>

01204338 <mbrtowc>:
 1204338:	defff604 	addi	sp,sp,-40
 120433c:	dc400315 	stw	r17,12(sp)
 1204340:	dc000215 	stw	r16,8(sp)
 1204344:	dfc00915 	stw	ra,36(sp)
 1204348:	dd800815 	stw	r22,32(sp)
 120434c:	dd400715 	stw	r21,28(sp)
 1204350:	dd000615 	stw	r20,24(sp)
 1204354:	dcc00515 	stw	r19,20(sp)
 1204358:	dc800415 	stw	r18,16(sp)
 120435c:	2821883a 	mov	r16,r5
 1204360:	3823883a 	mov	r17,r7
 1204364:	28002026 	beq	r5,zero,12043e8 <mbrtowc+0xb0>
 1204368:	048048b4 	movhi	r18,290
 120436c:	94a62a04 	addi	r18,r18,-26456
 1204370:	008048b4 	movhi	r2,290
 1204374:	95800017 	ldw	r22,0(r18)
 1204378:	10a62f04 	addi	r2,r2,-26436
 120437c:	15400017 	ldw	r21,0(r2)
 1204380:	2029883a 	mov	r20,r4
 1204384:	3027883a 	mov	r19,r6
 1204388:	12040140 	call	1204014 <__locale_charset>
 120438c:	d8800015 	stw	r2,0(sp)
 1204390:	dc400115 	stw	r17,4(sp)
 1204394:	b009883a 	mov	r4,r22
 1204398:	a00b883a 	mov	r5,r20
 120439c:	800d883a 	mov	r6,r16
 12043a0:	980f883a 	mov	r7,r19
 12043a4:	a83ee83a 	callr	r21
 12043a8:	00ffffc4 	movi	r3,-1
 12043ac:	10c0041e 	bne	r2,r3,12043c0 <mbrtowc+0x88>
 12043b0:	90c00017 	ldw	r3,0(r18)
 12043b4:	01002284 	movi	r4,138
 12043b8:	88000015 	stw	zero,0(r17)
 12043bc:	19000015 	stw	r4,0(r3)
 12043c0:	dfc00917 	ldw	ra,36(sp)
 12043c4:	dd800817 	ldw	r22,32(sp)
 12043c8:	dd400717 	ldw	r21,28(sp)
 12043cc:	dd000617 	ldw	r20,24(sp)
 12043d0:	dcc00517 	ldw	r19,20(sp)
 12043d4:	dc800417 	ldw	r18,16(sp)
 12043d8:	dc400317 	ldw	r17,12(sp)
 12043dc:	dc000217 	ldw	r16,8(sp)
 12043e0:	dec00a04 	addi	sp,sp,40
 12043e4:	f800283a 	ret
 12043e8:	048048b4 	movhi	r18,290
 12043ec:	94a62a04 	addi	r18,r18,-26456
 12043f0:	008048b4 	movhi	r2,290
 12043f4:	94c00017 	ldw	r19,0(r18)
 12043f8:	10a62f04 	addi	r2,r2,-26436
 12043fc:	14000017 	ldw	r16,0(r2)
 1204400:	12040140 	call	1204014 <__locale_charset>
 1204404:	01804874 	movhi	r6,289
 1204408:	319e8004 	addi	r6,r6,31232
 120440c:	d8800015 	stw	r2,0(sp)
 1204410:	dc400115 	stw	r17,4(sp)
 1204414:	9809883a 	mov	r4,r19
 1204418:	000b883a 	mov	r5,zero
 120441c:	01c00044 	movi	r7,1
 1204420:	803ee83a 	callr	r16
 1204424:	003fe006 	br	12043a8 <__alt_mem_instruction_tcm+0xff2043a8>

01204428 <__ascii_mbtowc>:
 1204428:	deffff04 	addi	sp,sp,-4
 120442c:	28000826 	beq	r5,zero,1204450 <__ascii_mbtowc+0x28>
 1204430:	30000926 	beq	r6,zero,1204458 <__ascii_mbtowc+0x30>
 1204434:	38000b26 	beq	r7,zero,1204464 <__ascii_mbtowc+0x3c>
 1204438:	30800003 	ldbu	r2,0(r6)
 120443c:	28800015 	stw	r2,0(r5)
 1204440:	30800003 	ldbu	r2,0(r6)
 1204444:	1004c03a 	cmpne	r2,r2,zero
 1204448:	dec00104 	addi	sp,sp,4
 120444c:	f800283a 	ret
 1204450:	d80b883a 	mov	r5,sp
 1204454:	303ff71e 	bne	r6,zero,1204434 <__alt_mem_instruction_tcm+0xff204434>
 1204458:	0005883a 	mov	r2,zero
 120445c:	dec00104 	addi	sp,sp,4
 1204460:	f800283a 	ret
 1204464:	00bfff84 	movi	r2,-2
 1204468:	003ff706 	br	1204448 <__alt_mem_instruction_tcm+0xff204448>

0120446c <_mbtowc_r>:
 120446c:	008048b4 	movhi	r2,290
 1204470:	defff804 	addi	sp,sp,-32
 1204474:	10a62f04 	addi	r2,r2,-26436
 1204478:	dfc00715 	stw	ra,28(sp)
 120447c:	dc000615 	stw	r16,24(sp)
 1204480:	14000017 	ldw	r16,0(r2)
 1204484:	d9000215 	stw	r4,8(sp)
 1204488:	d9400315 	stw	r5,12(sp)
 120448c:	d9800415 	stw	r6,16(sp)
 1204490:	d9c00515 	stw	r7,20(sp)
 1204494:	12040140 	call	1204014 <__locale_charset>
 1204498:	d8800015 	stw	r2,0(sp)
 120449c:	d8800817 	ldw	r2,32(sp)
 12044a0:	d9000217 	ldw	r4,8(sp)
 12044a4:	d9400317 	ldw	r5,12(sp)
 12044a8:	d9800417 	ldw	r6,16(sp)
 12044ac:	d9c00517 	ldw	r7,20(sp)
 12044b0:	d8800115 	stw	r2,4(sp)
 12044b4:	803ee83a 	callr	r16
 12044b8:	dfc00717 	ldw	ra,28(sp)
 12044bc:	dc000617 	ldw	r16,24(sp)
 12044c0:	dec00804 	addi	sp,sp,32
 12044c4:	f800283a 	ret

012044c8 <memmove>:
 12044c8:	2005883a 	mov	r2,r4
 12044cc:	29000b2e 	bgeu	r5,r4,12044fc <memmove+0x34>
 12044d0:	298f883a 	add	r7,r5,r6
 12044d4:	21c0092e 	bgeu	r4,r7,12044fc <memmove+0x34>
 12044d8:	2187883a 	add	r3,r4,r6
 12044dc:	198bc83a 	sub	r5,r3,r6
 12044e0:	30004b26 	beq	r6,zero,1204610 <memmove+0x148>
 12044e4:	39ffffc4 	addi	r7,r7,-1
 12044e8:	39000003 	ldbu	r4,0(r7)
 12044ec:	18ffffc4 	addi	r3,r3,-1
 12044f0:	19000005 	stb	r4,0(r3)
 12044f4:	197ffb1e 	bne	r3,r5,12044e4 <__alt_mem_instruction_tcm+0xff2044e4>
 12044f8:	f800283a 	ret
 12044fc:	00c003c4 	movi	r3,15
 1204500:	1980412e 	bgeu	r3,r6,1204608 <memmove+0x140>
 1204504:	1146b03a 	or	r3,r2,r5
 1204508:	18c000cc 	andi	r3,r3,3
 120450c:	1800411e 	bne	r3,zero,1204614 <memmove+0x14c>
 1204510:	33fffc04 	addi	r15,r6,-16
 1204514:	781ed13a 	srli	r15,r15,4
 1204518:	28c00104 	addi	r3,r5,4
 120451c:	13400104 	addi	r13,r2,4
 1204520:	781c913a 	slli	r14,r15,4
 1204524:	2b000204 	addi	r12,r5,8
 1204528:	12c00204 	addi	r11,r2,8
 120452c:	73800504 	addi	r14,r14,20
 1204530:	2a800304 	addi	r10,r5,12
 1204534:	12400304 	addi	r9,r2,12
 1204538:	2b9d883a 	add	r14,r5,r14
 120453c:	2811883a 	mov	r8,r5
 1204540:	100f883a 	mov	r7,r2
 1204544:	41000017 	ldw	r4,0(r8)
 1204548:	39c00404 	addi	r7,r7,16
 120454c:	18c00404 	addi	r3,r3,16
 1204550:	393ffc15 	stw	r4,-16(r7)
 1204554:	193ffc17 	ldw	r4,-16(r3)
 1204558:	6b400404 	addi	r13,r13,16
 120455c:	5ac00404 	addi	r11,r11,16
 1204560:	693ffc15 	stw	r4,-16(r13)
 1204564:	61000017 	ldw	r4,0(r12)
 1204568:	4a400404 	addi	r9,r9,16
 120456c:	42000404 	addi	r8,r8,16
 1204570:	593ffc15 	stw	r4,-16(r11)
 1204574:	51000017 	ldw	r4,0(r10)
 1204578:	63000404 	addi	r12,r12,16
 120457c:	52800404 	addi	r10,r10,16
 1204580:	493ffc15 	stw	r4,-16(r9)
 1204584:	1bbfef1e 	bne	r3,r14,1204544 <__alt_mem_instruction_tcm+0xff204544>
 1204588:	79000044 	addi	r4,r15,1
 120458c:	2008913a 	slli	r4,r4,4
 1204590:	328003cc 	andi	r10,r6,15
 1204594:	02c000c4 	movi	r11,3
 1204598:	1107883a 	add	r3,r2,r4
 120459c:	290b883a 	add	r5,r5,r4
 12045a0:	5a801e2e 	bgeu	r11,r10,120461c <memmove+0x154>
 12045a4:	1813883a 	mov	r9,r3
 12045a8:	2811883a 	mov	r8,r5
 12045ac:	500f883a 	mov	r7,r10
 12045b0:	41000017 	ldw	r4,0(r8)
 12045b4:	4a400104 	addi	r9,r9,4
 12045b8:	39ffff04 	addi	r7,r7,-4
 12045bc:	493fff15 	stw	r4,-4(r9)
 12045c0:	42000104 	addi	r8,r8,4
 12045c4:	59fffa36 	bltu	r11,r7,12045b0 <__alt_mem_instruction_tcm+0xff2045b0>
 12045c8:	513fff04 	addi	r4,r10,-4
 12045cc:	2008d0ba 	srli	r4,r4,2
 12045d0:	318000cc 	andi	r6,r6,3
 12045d4:	21000044 	addi	r4,r4,1
 12045d8:	2109883a 	add	r4,r4,r4
 12045dc:	2109883a 	add	r4,r4,r4
 12045e0:	1907883a 	add	r3,r3,r4
 12045e4:	290b883a 	add	r5,r5,r4
 12045e8:	30000926 	beq	r6,zero,1204610 <memmove+0x148>
 12045ec:	198d883a 	add	r6,r3,r6
 12045f0:	29c00003 	ldbu	r7,0(r5)
 12045f4:	18c00044 	addi	r3,r3,1
 12045f8:	29400044 	addi	r5,r5,1
 12045fc:	19ffffc5 	stb	r7,-1(r3)
 1204600:	19bffb1e 	bne	r3,r6,12045f0 <__alt_mem_instruction_tcm+0xff2045f0>
 1204604:	f800283a 	ret
 1204608:	1007883a 	mov	r3,r2
 120460c:	003ff606 	br	12045e8 <__alt_mem_instruction_tcm+0xff2045e8>
 1204610:	f800283a 	ret
 1204614:	1007883a 	mov	r3,r2
 1204618:	003ff406 	br	12045ec <__alt_mem_instruction_tcm+0xff2045ec>
 120461c:	500d883a 	mov	r6,r10
 1204620:	003ff106 	br	12045e8 <__alt_mem_instruction_tcm+0xff2045e8>

01204624 <_read_r>:
 1204624:	defffd04 	addi	sp,sp,-12
 1204628:	dc000015 	stw	r16,0(sp)
 120462c:	040048b4 	movhi	r16,290
 1204630:	dc400115 	stw	r17,4(sp)
 1204634:	84263f04 	addi	r16,r16,-26372
 1204638:	2023883a 	mov	r17,r4
 120463c:	2809883a 	mov	r4,r5
 1204640:	300b883a 	mov	r5,r6
 1204644:	380d883a 	mov	r6,r7
 1204648:	dfc00215 	stw	ra,8(sp)
 120464c:	80000015 	stw	zero,0(r16)
 1204650:	1212c740 	call	1212c74 <read>
 1204654:	00ffffc4 	movi	r3,-1
 1204658:	10c00526 	beq	r2,r3,1204670 <_read_r+0x4c>
 120465c:	dfc00217 	ldw	ra,8(sp)
 1204660:	dc400117 	ldw	r17,4(sp)
 1204664:	dc000017 	ldw	r16,0(sp)
 1204668:	dec00304 	addi	sp,sp,12
 120466c:	f800283a 	ret
 1204670:	80c00017 	ldw	r3,0(r16)
 1204674:	183ff926 	beq	r3,zero,120465c <__alt_mem_instruction_tcm+0xff20465c>
 1204678:	88c00015 	stw	r3,0(r17)
 120467c:	003ff706 	br	120465c <__alt_mem_instruction_tcm+0xff20465c>

01204680 <_realloc_r>:
 1204680:	defff604 	addi	sp,sp,-40
 1204684:	dcc00315 	stw	r19,12(sp)
 1204688:	dc400115 	stw	r17,4(sp)
 120468c:	dfc00915 	stw	ra,36(sp)
 1204690:	df000815 	stw	fp,32(sp)
 1204694:	ddc00715 	stw	r23,28(sp)
 1204698:	dd800615 	stw	r22,24(sp)
 120469c:	dd400515 	stw	r21,20(sp)
 12046a0:	dd000415 	stw	r20,16(sp)
 12046a4:	dc800215 	stw	r18,8(sp)
 12046a8:	dc000015 	stw	r16,0(sp)
 12046ac:	2827883a 	mov	r19,r5
 12046b0:	3023883a 	mov	r17,r6
 12046b4:	2800bf26 	beq	r5,zero,12049b4 <_realloc_r+0x334>
 12046b8:	2025883a 	mov	r18,r4
 12046bc:	1212be40 	call	1212be4 <__malloc_lock>
 12046c0:	98ffff17 	ldw	r3,-4(r19)
 12046c4:	01bfff04 	movi	r6,-4
 12046c8:	890002c4 	addi	r4,r17,11
 12046cc:	01c00584 	movi	r7,22
 12046d0:	9d7ffe04 	addi	r21,r19,-8
 12046d4:	19a0703a 	and	r16,r3,r6
 12046d8:	39003f2e 	bgeu	r7,r4,12047d8 <_realloc_r+0x158>
 12046dc:	053ffe04 	movi	r20,-8
 12046e0:	2528703a 	and	r20,r4,r20
 12046e4:	a00f883a 	mov	r7,r20
 12046e8:	a0008216 	blt	r20,zero,12048f4 <_realloc_r+0x274>
 12046ec:	a4408136 	bltu	r20,r17,12048f4 <_realloc_r+0x274>
 12046f0:	81c03c0e 	bge	r16,r7,12047e4 <_realloc_r+0x164>
 12046f4:	070048b4 	movhi	fp,290
 12046f8:	e7204604 	addi	fp,fp,-32488
 12046fc:	e1000217 	ldw	r4,8(fp)
 1204700:	ac05883a 	add	r2,r21,r16
 1204704:	2080bf26 	beq	r4,r2,1204a04 <_realloc_r+0x384>
 1204708:	11000117 	ldw	r4,4(r2)
 120470c:	023fff84 	movi	r8,-2
 1204710:	2210703a 	and	r8,r4,r8
 1204714:	1211883a 	add	r8,r2,r8
 1204718:	41400117 	ldw	r5,4(r8)
 120471c:	2940004c 	andi	r5,r5,1
 1204720:	28004a1e 	bne	r5,zero,120484c <_realloc_r+0x1cc>
 1204724:	017fff04 	movi	r5,-4
 1204728:	2148703a 	and	r4,r4,r5
 120472c:	2409883a 	add	r4,r4,r16
 1204730:	21c0ad0e 	bge	r4,r7,12049e8 <_realloc_r+0x368>
 1204734:	18c0004c 	andi	r3,r3,1
 1204738:	18007f1e 	bne	r3,zero,1204938 <_realloc_r+0x2b8>
 120473c:	9dfffe17 	ldw	r23,-8(r19)
 1204740:	adefc83a 	sub	r23,r21,r23
 1204744:	bd800117 	ldw	r22,4(r23)
 1204748:	b14a703a 	and	r5,r22,r5
 120474c:	216d883a 	add	r22,r4,r5
 1204750:	b1c04516 	blt	r22,r7,1204868 <_realloc_r+0x1e8>
 1204754:	10c00317 	ldw	r3,12(r2)
 1204758:	10800217 	ldw	r2,8(r2)
 120475c:	81bfff04 	addi	r6,r16,-4
 1204760:	bc400204 	addi	r17,r23,8
 1204764:	10c00315 	stw	r3,12(r2)
 1204768:	18800215 	stw	r2,8(r3)
 120476c:	b9400217 	ldw	r5,8(r23)
 1204770:	b8c00317 	ldw	r3,12(r23)
 1204774:	00800904 	movi	r2,36
 1204778:	28c00315 	stw	r3,12(r5)
 120477c:	19400215 	stw	r5,8(r3)
 1204780:	1180ef36 	bltu	r2,r6,1204b40 <_realloc_r+0x4c0>
 1204784:	008004c4 	movi	r2,19
 1204788:	1180da2e 	bgeu	r2,r6,1204af4 <_realloc_r+0x474>
 120478c:	98800017 	ldw	r2,0(r19)
 1204790:	b8800215 	stw	r2,8(r23)
 1204794:	98800117 	ldw	r2,4(r19)
 1204798:	b8800315 	stw	r2,12(r23)
 120479c:	008006c4 	movi	r2,27
 12047a0:	1180fc2e 	bgeu	r2,r6,1204b94 <_realloc_r+0x514>
 12047a4:	98800217 	ldw	r2,8(r19)
 12047a8:	b8800415 	stw	r2,16(r23)
 12047ac:	98800317 	ldw	r2,12(r19)
 12047b0:	b8800515 	stw	r2,20(r23)
 12047b4:	00800904 	movi	r2,36
 12047b8:	3080421e 	bne	r6,r2,12048c4 <_realloc_r+0x244>
 12047bc:	98800417 	ldw	r2,16(r19)
 12047c0:	9cc00604 	addi	r19,r19,24
 12047c4:	b8c00804 	addi	r3,r23,32
 12047c8:	b8800615 	stw	r2,24(r23)
 12047cc:	98bfff17 	ldw	r2,-4(r19)
 12047d0:	b8800715 	stw	r2,28(r23)
 12047d4:	00003d06 	br	12048cc <_realloc_r+0x24c>
 12047d8:	01c00404 	movi	r7,16
 12047dc:	3829883a 	mov	r20,r7
 12047e0:	003fc206 	br	12046ec <__alt_mem_instruction_tcm+0xff2046ec>
 12047e4:	9823883a 	mov	r17,r19
 12047e8:	850fc83a 	sub	r7,r16,r20
 12047ec:	008003c4 	movi	r2,15
 12047f0:	18c0004c 	andi	r3,r3,1
 12047f4:	11c04336 	bltu	r2,r7,1204904 <_realloc_r+0x284>
 12047f8:	1c06b03a 	or	r3,r3,r16
 12047fc:	a8c00115 	stw	r3,4(r21)
 1204800:	ac21883a 	add	r16,r21,r16
 1204804:	80c00117 	ldw	r3,4(r16)
 1204808:	18c00054 	ori	r3,r3,1
 120480c:	80c00115 	stw	r3,4(r16)
 1204810:	9009883a 	mov	r4,r18
 1204814:	1212c040 	call	1212c04 <__malloc_unlock>
 1204818:	8805883a 	mov	r2,r17
 120481c:	dfc00917 	ldw	ra,36(sp)
 1204820:	df000817 	ldw	fp,32(sp)
 1204824:	ddc00717 	ldw	r23,28(sp)
 1204828:	dd800617 	ldw	r22,24(sp)
 120482c:	dd400517 	ldw	r21,20(sp)
 1204830:	dd000417 	ldw	r20,16(sp)
 1204834:	dcc00317 	ldw	r19,12(sp)
 1204838:	dc800217 	ldw	r18,8(sp)
 120483c:	dc400117 	ldw	r17,4(sp)
 1204840:	dc000017 	ldw	r16,0(sp)
 1204844:	dec00a04 	addi	sp,sp,40
 1204848:	f800283a 	ret
 120484c:	18c0004c 	andi	r3,r3,1
 1204850:	1800391e 	bne	r3,zero,1204938 <_realloc_r+0x2b8>
 1204854:	9dfffe17 	ldw	r23,-8(r19)
 1204858:	00bfff04 	movi	r2,-4
 120485c:	adefc83a 	sub	r23,r21,r23
 1204860:	b9400117 	ldw	r5,4(r23)
 1204864:	288a703a 	and	r5,r5,r2
 1204868:	2c2d883a 	add	r22,r5,r16
 120486c:	b1c03216 	blt	r22,r7,1204938 <_realloc_r+0x2b8>
 1204870:	b8800317 	ldw	r2,12(r23)
 1204874:	b8c00217 	ldw	r3,8(r23)
 1204878:	81bfff04 	addi	r6,r16,-4
 120487c:	01000904 	movi	r4,36
 1204880:	18800315 	stw	r2,12(r3)
 1204884:	10c00215 	stw	r3,8(r2)
 1204888:	bc400204 	addi	r17,r23,8
 120488c:	2180ac36 	bltu	r4,r6,1204b40 <_realloc_r+0x4c0>
 1204890:	008004c4 	movi	r2,19
 1204894:	1180972e 	bgeu	r2,r6,1204af4 <_realloc_r+0x474>
 1204898:	98800017 	ldw	r2,0(r19)
 120489c:	b8800215 	stw	r2,8(r23)
 12048a0:	98800117 	ldw	r2,4(r19)
 12048a4:	b8800315 	stw	r2,12(r23)
 12048a8:	008006c4 	movi	r2,27
 12048ac:	1180b92e 	bgeu	r2,r6,1204b94 <_realloc_r+0x514>
 12048b0:	98800217 	ldw	r2,8(r19)
 12048b4:	b8800415 	stw	r2,16(r23)
 12048b8:	98800317 	ldw	r2,12(r19)
 12048bc:	b8800515 	stw	r2,20(r23)
 12048c0:	313fbe26 	beq	r6,r4,12047bc <__alt_mem_instruction_tcm+0xff2047bc>
 12048c4:	b8c00604 	addi	r3,r23,24
 12048c8:	9cc00404 	addi	r19,r19,16
 12048cc:	98800017 	ldw	r2,0(r19)
 12048d0:	b021883a 	mov	r16,r22
 12048d4:	b82b883a 	mov	r21,r23
 12048d8:	18800015 	stw	r2,0(r3)
 12048dc:	98800117 	ldw	r2,4(r19)
 12048e0:	18800115 	stw	r2,4(r3)
 12048e4:	98800217 	ldw	r2,8(r19)
 12048e8:	18800215 	stw	r2,8(r3)
 12048ec:	b8c00117 	ldw	r3,4(r23)
 12048f0:	003fbd06 	br	12047e8 <__alt_mem_instruction_tcm+0xff2047e8>
 12048f4:	00800304 	movi	r2,12
 12048f8:	90800015 	stw	r2,0(r18)
 12048fc:	0005883a 	mov	r2,zero
 1204900:	003fc606 	br	120481c <__alt_mem_instruction_tcm+0xff20481c>
 1204904:	1d06b03a 	or	r3,r3,r20
 1204908:	ad0b883a 	add	r5,r21,r20
 120490c:	a8c00115 	stw	r3,4(r21)
 1204910:	38800054 	ori	r2,r7,1
 1204914:	28800115 	stw	r2,4(r5)
 1204918:	29cf883a 	add	r7,r5,r7
 120491c:	38800117 	ldw	r2,4(r7)
 1204920:	9009883a 	mov	r4,r18
 1204924:	29400204 	addi	r5,r5,8
 1204928:	10800054 	ori	r2,r2,1
 120492c:	38800115 	stw	r2,4(r7)
 1204930:	12037d40 	call	12037d4 <_free_r>
 1204934:	003fb606 	br	1204810 <__alt_mem_instruction_tcm+0xff204810>
 1204938:	880b883a 	mov	r5,r17
 120493c:	9009883a 	mov	r4,r18
 1204940:	1200a940 	call	1200a94 <_malloc_r>
 1204944:	1023883a 	mov	r17,r2
 1204948:	1000aa26 	beq	r2,zero,1204bf4 <_realloc_r+0x574>
 120494c:	98ffff17 	ldw	r3,-4(r19)
 1204950:	113ffe04 	addi	r4,r2,-8
 1204954:	00bfff84 	movi	r2,-2
 1204958:	1884703a 	and	r2,r3,r2
 120495c:	a885883a 	add	r2,r21,r2
 1204960:	20808626 	beq	r4,r2,1204b7c <_realloc_r+0x4fc>
 1204964:	81bfff04 	addi	r6,r16,-4
 1204968:	00800904 	movi	r2,36
 120496c:	11807036 	bltu	r2,r6,1204b30 <_realloc_r+0x4b0>
 1204970:	00c004c4 	movi	r3,19
 1204974:	19805636 	bltu	r3,r6,1204ad0 <_realloc_r+0x450>
 1204978:	8805883a 	mov	r2,r17
 120497c:	9807883a 	mov	r3,r19
 1204980:	19000017 	ldw	r4,0(r3)
 1204984:	11000015 	stw	r4,0(r2)
 1204988:	19000117 	ldw	r4,4(r3)
 120498c:	11000115 	stw	r4,4(r2)
 1204990:	18c00217 	ldw	r3,8(r3)
 1204994:	10c00215 	stw	r3,8(r2)
 1204998:	980b883a 	mov	r5,r19
 120499c:	9009883a 	mov	r4,r18
 12049a0:	12037d40 	call	12037d4 <_free_r>
 12049a4:	9009883a 	mov	r4,r18
 12049a8:	1212c040 	call	1212c04 <__malloc_unlock>
 12049ac:	8805883a 	mov	r2,r17
 12049b0:	003f9a06 	br	120481c <__alt_mem_instruction_tcm+0xff20481c>
 12049b4:	300b883a 	mov	r5,r6
 12049b8:	dfc00917 	ldw	ra,36(sp)
 12049bc:	df000817 	ldw	fp,32(sp)
 12049c0:	ddc00717 	ldw	r23,28(sp)
 12049c4:	dd800617 	ldw	r22,24(sp)
 12049c8:	dd400517 	ldw	r21,20(sp)
 12049cc:	dd000417 	ldw	r20,16(sp)
 12049d0:	dcc00317 	ldw	r19,12(sp)
 12049d4:	dc800217 	ldw	r18,8(sp)
 12049d8:	dc400117 	ldw	r17,4(sp)
 12049dc:	dc000017 	ldw	r16,0(sp)
 12049e0:	dec00a04 	addi	sp,sp,40
 12049e4:	1200a941 	jmpi	1200a94 <_malloc_r>
 12049e8:	11400317 	ldw	r5,12(r2)
 12049ec:	10800217 	ldw	r2,8(r2)
 12049f0:	9823883a 	mov	r17,r19
 12049f4:	2021883a 	mov	r16,r4
 12049f8:	11400315 	stw	r5,12(r2)
 12049fc:	28800215 	stw	r2,8(r5)
 1204a00:	003f7906 	br	12047e8 <__alt_mem_instruction_tcm+0xff2047e8>
 1204a04:	21000117 	ldw	r4,4(r4)
 1204a08:	00bfff04 	movi	r2,-4
 1204a0c:	a1800404 	addi	r6,r20,16
 1204a10:	2088703a 	and	r4,r4,r2
 1204a14:	2409883a 	add	r4,r4,r16
 1204a18:	2180380e 	bge	r4,r6,1204afc <_realloc_r+0x47c>
 1204a1c:	18c0004c 	andi	r3,r3,1
 1204a20:	183fc51e 	bne	r3,zero,1204938 <__alt_mem_instruction_tcm+0xff204938>
 1204a24:	9dfffe17 	ldw	r23,-8(r19)
 1204a28:	adefc83a 	sub	r23,r21,r23
 1204a2c:	b9400117 	ldw	r5,4(r23)
 1204a30:	288a703a 	and	r5,r5,r2
 1204a34:	216d883a 	add	r22,r4,r5
 1204a38:	b1bf8b16 	blt	r22,r6,1204868 <__alt_mem_instruction_tcm+0xff204868>
 1204a3c:	b8800317 	ldw	r2,12(r23)
 1204a40:	b8c00217 	ldw	r3,8(r23)
 1204a44:	81bfff04 	addi	r6,r16,-4
 1204a48:	01000904 	movi	r4,36
 1204a4c:	18800315 	stw	r2,12(r3)
 1204a50:	10c00215 	stw	r3,8(r2)
 1204a54:	bc400204 	addi	r17,r23,8
 1204a58:	21805a36 	bltu	r4,r6,1204bc4 <_realloc_r+0x544>
 1204a5c:	008004c4 	movi	r2,19
 1204a60:	1180562e 	bgeu	r2,r6,1204bbc <_realloc_r+0x53c>
 1204a64:	98800017 	ldw	r2,0(r19)
 1204a68:	b8800215 	stw	r2,8(r23)
 1204a6c:	98800117 	ldw	r2,4(r19)
 1204a70:	b8800315 	stw	r2,12(r23)
 1204a74:	008006c4 	movi	r2,27
 1204a78:	11805636 	bltu	r2,r6,1204bd4 <_realloc_r+0x554>
 1204a7c:	b8800404 	addi	r2,r23,16
 1204a80:	9cc00204 	addi	r19,r19,8
 1204a84:	98c00017 	ldw	r3,0(r19)
 1204a88:	10c00015 	stw	r3,0(r2)
 1204a8c:	98c00117 	ldw	r3,4(r19)
 1204a90:	10c00115 	stw	r3,4(r2)
 1204a94:	98c00217 	ldw	r3,8(r19)
 1204a98:	10c00215 	stw	r3,8(r2)
 1204a9c:	bd07883a 	add	r3,r23,r20
 1204aa0:	b505c83a 	sub	r2,r22,r20
 1204aa4:	e0c00215 	stw	r3,8(fp)
 1204aa8:	10800054 	ori	r2,r2,1
 1204aac:	18800115 	stw	r2,4(r3)
 1204ab0:	b8800117 	ldw	r2,4(r23)
 1204ab4:	9009883a 	mov	r4,r18
 1204ab8:	1080004c 	andi	r2,r2,1
 1204abc:	a0a8b03a 	or	r20,r20,r2
 1204ac0:	bd000115 	stw	r20,4(r23)
 1204ac4:	1212c040 	call	1212c04 <__malloc_unlock>
 1204ac8:	8805883a 	mov	r2,r17
 1204acc:	003f5306 	br	120481c <__alt_mem_instruction_tcm+0xff20481c>
 1204ad0:	98c00017 	ldw	r3,0(r19)
 1204ad4:	88c00015 	stw	r3,0(r17)
 1204ad8:	98c00117 	ldw	r3,4(r19)
 1204adc:	88c00115 	stw	r3,4(r17)
 1204ae0:	00c006c4 	movi	r3,27
 1204ae4:	19801d36 	bltu	r3,r6,1204b5c <_realloc_r+0x4dc>
 1204ae8:	88800204 	addi	r2,r17,8
 1204aec:	98c00204 	addi	r3,r19,8
 1204af0:	003fa306 	br	1204980 <__alt_mem_instruction_tcm+0xff204980>
 1204af4:	8807883a 	mov	r3,r17
 1204af8:	003f7406 	br	12048cc <__alt_mem_instruction_tcm+0xff2048cc>
 1204afc:	ad2b883a 	add	r21,r21,r20
 1204b00:	2505c83a 	sub	r2,r4,r20
 1204b04:	e5400215 	stw	r21,8(fp)
 1204b08:	10800054 	ori	r2,r2,1
 1204b0c:	a8800115 	stw	r2,4(r21)
 1204b10:	98bfff17 	ldw	r2,-4(r19)
 1204b14:	9009883a 	mov	r4,r18
 1204b18:	1080004c 	andi	r2,r2,1
 1204b1c:	a0a8b03a 	or	r20,r20,r2
 1204b20:	9d3fff15 	stw	r20,-4(r19)
 1204b24:	1212c040 	call	1212c04 <__malloc_unlock>
 1204b28:	9805883a 	mov	r2,r19
 1204b2c:	003f3b06 	br	120481c <__alt_mem_instruction_tcm+0xff20481c>
 1204b30:	8809883a 	mov	r4,r17
 1204b34:	980b883a 	mov	r5,r19
 1204b38:	12044c80 	call	12044c8 <memmove>
 1204b3c:	003f9606 	br	1204998 <__alt_mem_instruction_tcm+0xff204998>
 1204b40:	8809883a 	mov	r4,r17
 1204b44:	980b883a 	mov	r5,r19
 1204b48:	12044c80 	call	12044c8 <memmove>
 1204b4c:	b8c00117 	ldw	r3,4(r23)
 1204b50:	b021883a 	mov	r16,r22
 1204b54:	b82b883a 	mov	r21,r23
 1204b58:	003f2306 	br	12047e8 <__alt_mem_instruction_tcm+0xff2047e8>
 1204b5c:	98c00217 	ldw	r3,8(r19)
 1204b60:	88c00215 	stw	r3,8(r17)
 1204b64:	98c00317 	ldw	r3,12(r19)
 1204b68:	88c00315 	stw	r3,12(r17)
 1204b6c:	30800c26 	beq	r6,r2,1204ba0 <_realloc_r+0x520>
 1204b70:	88800404 	addi	r2,r17,16
 1204b74:	98c00404 	addi	r3,r19,16
 1204b78:	003f8106 	br	1204980 <__alt_mem_instruction_tcm+0xff204980>
 1204b7c:	893fff17 	ldw	r4,-4(r17)
 1204b80:	00bfff04 	movi	r2,-4
 1204b84:	9823883a 	mov	r17,r19
 1204b88:	2084703a 	and	r2,r4,r2
 1204b8c:	80a1883a 	add	r16,r16,r2
 1204b90:	003f1506 	br	12047e8 <__alt_mem_instruction_tcm+0xff2047e8>
 1204b94:	b8c00404 	addi	r3,r23,16
 1204b98:	9cc00204 	addi	r19,r19,8
 1204b9c:	003f4b06 	br	12048cc <__alt_mem_instruction_tcm+0xff2048cc>
 1204ba0:	99000417 	ldw	r4,16(r19)
 1204ba4:	88800604 	addi	r2,r17,24
 1204ba8:	98c00604 	addi	r3,r19,24
 1204bac:	89000415 	stw	r4,16(r17)
 1204bb0:	99000517 	ldw	r4,20(r19)
 1204bb4:	89000515 	stw	r4,20(r17)
 1204bb8:	003f7106 	br	1204980 <__alt_mem_instruction_tcm+0xff204980>
 1204bbc:	8805883a 	mov	r2,r17
 1204bc0:	003fb006 	br	1204a84 <__alt_mem_instruction_tcm+0xff204a84>
 1204bc4:	8809883a 	mov	r4,r17
 1204bc8:	980b883a 	mov	r5,r19
 1204bcc:	12044c80 	call	12044c8 <memmove>
 1204bd0:	003fb206 	br	1204a9c <__alt_mem_instruction_tcm+0xff204a9c>
 1204bd4:	98800217 	ldw	r2,8(r19)
 1204bd8:	b8800415 	stw	r2,16(r23)
 1204bdc:	98800317 	ldw	r2,12(r19)
 1204be0:	b8800515 	stw	r2,20(r23)
 1204be4:	31000726 	beq	r6,r4,1204c04 <_realloc_r+0x584>
 1204be8:	b8800604 	addi	r2,r23,24
 1204bec:	9cc00404 	addi	r19,r19,16
 1204bf0:	003fa406 	br	1204a84 <__alt_mem_instruction_tcm+0xff204a84>
 1204bf4:	9009883a 	mov	r4,r18
 1204bf8:	1212c040 	call	1212c04 <__malloc_unlock>
 1204bfc:	0005883a 	mov	r2,zero
 1204c00:	003f0606 	br	120481c <__alt_mem_instruction_tcm+0xff20481c>
 1204c04:	98c00417 	ldw	r3,16(r19)
 1204c08:	9cc00604 	addi	r19,r19,24
 1204c0c:	b8800804 	addi	r2,r23,32
 1204c10:	b8c00615 	stw	r3,24(r23)
 1204c14:	98ffff17 	ldw	r3,-4(r19)
 1204c18:	b8c00715 	stw	r3,28(r23)
 1204c1c:	003f9906 	br	1204a84 <__alt_mem_instruction_tcm+0xff204a84>

01204c20 <__fpclassifyd>:
 1204c20:	00a00034 	movhi	r2,32768
 1204c24:	10bfffc4 	addi	r2,r2,-1
 1204c28:	2884703a 	and	r2,r5,r2
 1204c2c:	10000726 	beq	r2,zero,1204c4c <__fpclassifyd+0x2c>
 1204c30:	00fffc34 	movhi	r3,65520
 1204c34:	019ff834 	movhi	r6,32736
 1204c38:	28c7883a 	add	r3,r5,r3
 1204c3c:	31bfffc4 	addi	r6,r6,-1
 1204c40:	30c00536 	bltu	r6,r3,1204c58 <__fpclassifyd+0x38>
 1204c44:	00800104 	movi	r2,4
 1204c48:	f800283a 	ret
 1204c4c:	2000021e 	bne	r4,zero,1204c58 <__fpclassifyd+0x38>
 1204c50:	00800084 	movi	r2,2
 1204c54:	f800283a 	ret
 1204c58:	00dffc34 	movhi	r3,32752
 1204c5c:	019ff834 	movhi	r6,32736
 1204c60:	28cb883a 	add	r5,r5,r3
 1204c64:	31bfffc4 	addi	r6,r6,-1
 1204c68:	317ff62e 	bgeu	r6,r5,1204c44 <__alt_mem_instruction_tcm+0xff204c44>
 1204c6c:	01400434 	movhi	r5,16
 1204c70:	297fffc4 	addi	r5,r5,-1
 1204c74:	28800236 	bltu	r5,r2,1204c80 <__fpclassifyd+0x60>
 1204c78:	008000c4 	movi	r2,3
 1204c7c:	f800283a 	ret
 1204c80:	10c00226 	beq	r2,r3,1204c8c <__fpclassifyd+0x6c>
 1204c84:	0005883a 	mov	r2,zero
 1204c88:	f800283a 	ret
 1204c8c:	2005003a 	cmpeq	r2,r4,zero
 1204c90:	f800283a 	ret

01204c94 <__sccl>:
 1204c94:	2a000003 	ldbu	r8,0(r5)
 1204c98:	00801784 	movi	r2,94
 1204c9c:	40802526 	beq	r8,r2,1204d34 <__sccl+0xa0>
 1204ca0:	29400044 	addi	r5,r5,1
 1204ca4:	000f883a 	mov	r7,zero
 1204ca8:	0013883a 	mov	r9,zero
 1204cac:	2007883a 	mov	r3,r4
 1204cb0:	21804004 	addi	r6,r4,256
 1204cb4:	19c00005 	stb	r7,0(r3)
 1204cb8:	18c00044 	addi	r3,r3,1
 1204cbc:	19bffd1e 	bne	r3,r6,1204cb4 <__alt_mem_instruction_tcm+0xff204cb4>
 1204cc0:	40001026 	beq	r8,zero,1204d04 <__sccl+0x70>
 1204cc4:	00800044 	movi	r2,1
 1204cc8:	124dc83a 	sub	r6,r2,r9
 1204ccc:	02801744 	movi	r10,93
 1204cd0:	02400b44 	movi	r9,45
 1204cd4:	2205883a 	add	r2,r4,r8
 1204cd8:	11800005 	stb	r6,0(r2)
 1204cdc:	28800044 	addi	r2,r5,1
 1204ce0:	28c00003 	ldbu	r3,0(r5)
 1204ce4:	1a400926 	beq	r3,r9,1204d0c <__sccl+0x78>
 1204ce8:	1a800526 	beq	r3,r10,1204d00 <__sccl+0x6c>
 1204cec:	18000326 	beq	r3,zero,1204cfc <__sccl+0x68>
 1204cf0:	1811883a 	mov	r8,r3
 1204cf4:	100b883a 	mov	r5,r2
 1204cf8:	003ff606 	br	1204cd4 <__alt_mem_instruction_tcm+0xff204cd4>
 1204cfc:	2805883a 	mov	r2,r5
 1204d00:	f800283a 	ret
 1204d04:	28bfffc4 	addi	r2,r5,-1
 1204d08:	f800283a 	ret
 1204d0c:	11c00003 	ldbu	r7,0(r2)
 1204d10:	3a800d26 	beq	r7,r10,1204d48 <__sccl+0xb4>
 1204d14:	3a000c16 	blt	r7,r8,1204d48 <__sccl+0xb4>
 1204d18:	29400084 	addi	r5,r5,2
 1204d1c:	42000044 	addi	r8,r8,1
 1204d20:	2207883a 	add	r3,r4,r8
 1204d24:	19800005 	stb	r6,0(r3)
 1204d28:	41fffc16 	blt	r8,r7,1204d1c <__alt_mem_instruction_tcm+0xff204d1c>
 1204d2c:	10800084 	addi	r2,r2,2
 1204d30:	003feb06 	br	1204ce0 <__alt_mem_instruction_tcm+0xff204ce0>
 1204d34:	2a000043 	ldbu	r8,1(r5)
 1204d38:	01c00044 	movi	r7,1
 1204d3c:	29400084 	addi	r5,r5,2
 1204d40:	02400044 	movi	r9,1
 1204d44:	003fd906 	br	1204cac <__alt_mem_instruction_tcm+0xff204cac>
 1204d48:	100b883a 	mov	r5,r2
 1204d4c:	4811883a 	mov	r8,r9
 1204d50:	003fe006 	br	1204cd4 <__alt_mem_instruction_tcm+0xff204cd4>

01204d54 <nanf>:
 1204d54:	009ff034 	movhi	r2,32704
 1204d58:	f800283a 	ret

01204d5c <_sprintf_r>:
 1204d5c:	deffe404 	addi	sp,sp,-112
 1204d60:	2807883a 	mov	r3,r5
 1204d64:	dfc01a15 	stw	ra,104(sp)
 1204d68:	d9c01b15 	stw	r7,108(sp)
 1204d6c:	00a00034 	movhi	r2,32768
 1204d70:	10bfffc4 	addi	r2,r2,-1
 1204d74:	02008204 	movi	r8,520
 1204d78:	d8800215 	stw	r2,8(sp)
 1204d7c:	d8800515 	stw	r2,20(sp)
 1204d80:	d80b883a 	mov	r5,sp
 1204d84:	d9c01b04 	addi	r7,sp,108
 1204d88:	00bfffc4 	movi	r2,-1
 1204d8c:	d8c00015 	stw	r3,0(sp)
 1204d90:	d8c00415 	stw	r3,16(sp)
 1204d94:	da00030d 	sth	r8,12(sp)
 1204d98:	d880038d 	sth	r2,14(sp)
 1204d9c:	12083bc0 	call	12083bc <___svfprintf_internal_r>
 1204da0:	d8c00017 	ldw	r3,0(sp)
 1204da4:	18000005 	stb	zero,0(r3)
 1204da8:	dfc01a17 	ldw	ra,104(sp)
 1204dac:	dec01c04 	addi	sp,sp,112
 1204db0:	f800283a 	ret

01204db4 <sprintf>:
 1204db4:	deffe304 	addi	sp,sp,-116
 1204db8:	2007883a 	mov	r3,r4
 1204dbc:	dfc01a15 	stw	ra,104(sp)
 1204dc0:	d9801b15 	stw	r6,108(sp)
 1204dc4:	d9c01c15 	stw	r7,112(sp)
 1204dc8:	010048b4 	movhi	r4,290
 1204dcc:	21262a04 	addi	r4,r4,-26456
 1204dd0:	21000017 	ldw	r4,0(r4)
 1204dd4:	00a00034 	movhi	r2,32768
 1204dd8:	10bfffc4 	addi	r2,r2,-1
 1204ddc:	280d883a 	mov	r6,r5
 1204de0:	02008204 	movi	r8,520
 1204de4:	d8800215 	stw	r2,8(sp)
 1204de8:	d8800515 	stw	r2,20(sp)
 1204dec:	d80b883a 	mov	r5,sp
 1204df0:	d9c01b04 	addi	r7,sp,108
 1204df4:	00bfffc4 	movi	r2,-1
 1204df8:	d8c00015 	stw	r3,0(sp)
 1204dfc:	d8c00415 	stw	r3,16(sp)
 1204e00:	da00030d 	sth	r8,12(sp)
 1204e04:	d880038d 	sth	r2,14(sp)
 1204e08:	12083bc0 	call	12083bc <___svfprintf_internal_r>
 1204e0c:	d8c00017 	ldw	r3,0(sp)
 1204e10:	18000005 	stb	zero,0(r3)
 1204e14:	dfc01a17 	ldw	ra,104(sp)
 1204e18:	dec01d04 	addi	sp,sp,116
 1204e1c:	f800283a 	ret

01204e20 <strcmp>:
 1204e20:	2144b03a 	or	r2,r4,r5
 1204e24:	108000cc 	andi	r2,r2,3
 1204e28:	1000171e 	bne	r2,zero,1204e88 <strcmp+0x68>
 1204e2c:	20800017 	ldw	r2,0(r4)
 1204e30:	28c00017 	ldw	r3,0(r5)
 1204e34:	10c0141e 	bne	r2,r3,1204e88 <strcmp+0x68>
 1204e38:	027fbff4 	movhi	r9,65279
 1204e3c:	4a7fbfc4 	addi	r9,r9,-257
 1204e40:	0086303a 	nor	r3,zero,r2
 1204e44:	02202074 	movhi	r8,32897
 1204e48:	1245883a 	add	r2,r2,r9
 1204e4c:	42202004 	addi	r8,r8,-32640
 1204e50:	10c4703a 	and	r2,r2,r3
 1204e54:	1204703a 	and	r2,r2,r8
 1204e58:	10000226 	beq	r2,zero,1204e64 <strcmp+0x44>
 1204e5c:	00001706 	br	1204ebc <strcmp+0x9c>
 1204e60:	1000161e 	bne	r2,zero,1204ebc <strcmp+0x9c>
 1204e64:	21000104 	addi	r4,r4,4
 1204e68:	20c00017 	ldw	r3,0(r4)
 1204e6c:	29400104 	addi	r5,r5,4
 1204e70:	29800017 	ldw	r6,0(r5)
 1204e74:	1a4f883a 	add	r7,r3,r9
 1204e78:	00c4303a 	nor	r2,zero,r3
 1204e7c:	3884703a 	and	r2,r7,r2
 1204e80:	1204703a 	and	r2,r2,r8
 1204e84:	19bff626 	beq	r3,r6,1204e60 <__alt_mem_instruction_tcm+0xff204e60>
 1204e88:	20800007 	ldb	r2,0(r4)
 1204e8c:	1000051e 	bne	r2,zero,1204ea4 <strcmp+0x84>
 1204e90:	00000606 	br	1204eac <strcmp+0x8c>
 1204e94:	21000044 	addi	r4,r4,1
 1204e98:	20800007 	ldb	r2,0(r4)
 1204e9c:	29400044 	addi	r5,r5,1
 1204ea0:	10000226 	beq	r2,zero,1204eac <strcmp+0x8c>
 1204ea4:	28c00007 	ldb	r3,0(r5)
 1204ea8:	10fffa26 	beq	r2,r3,1204e94 <__alt_mem_instruction_tcm+0xff204e94>
 1204eac:	20800003 	ldbu	r2,0(r4)
 1204eb0:	28c00003 	ldbu	r3,0(r5)
 1204eb4:	10c5c83a 	sub	r2,r2,r3
 1204eb8:	f800283a 	ret
 1204ebc:	0005883a 	mov	r2,zero
 1204ec0:	f800283a 	ret

01204ec4 <_strtod_r>:
 1204ec4:	deffe104 	addi	sp,sp,-124
 1204ec8:	dd801b15 	stw	r22,108(sp)
 1204ecc:	dc001515 	stw	r16,84(sp)
 1204ed0:	d9400615 	stw	r5,24(sp)
 1204ed4:	dfc01e15 	stw	ra,120(sp)
 1204ed8:	df001d15 	stw	fp,116(sp)
 1204edc:	ddc01c15 	stw	r23,112(sp)
 1204ee0:	dd401a15 	stw	r21,104(sp)
 1204ee4:	dd001915 	stw	r20,100(sp)
 1204ee8:	dcc01815 	stw	r19,96(sp)
 1204eec:	dc801715 	stw	r18,92(sp)
 1204ef0:	dc401615 	stw	r17,88(sp)
 1204ef4:	2021883a 	mov	r16,r4
 1204ef8:	2809883a 	mov	r4,r5
 1204efc:	20800003 	ldbu	r2,0(r4)
 1204f00:	01c04834 	movhi	r7,288
 1204f04:	282d883a 	mov	r22,r5
 1204f08:	d9800c15 	stw	r6,48(sp)
 1204f0c:	d8000815 	stw	zero,32(sp)
 1204f10:	d8000715 	stw	zero,28(sp)
 1204f14:	01400b44 	movi	r5,45
 1204f18:	10c03fcc 	andi	r3,r2,255
 1204f1c:	39d3cd04 	addi	r7,r7,20276
 1204f20:	28c0bc36 	bltu	r5,r3,1205214 <_strtod_r+0x350>
 1204f24:	180690ba 	slli	r3,r3,2
 1204f28:	19c7883a 	add	r3,r3,r7
 1204f2c:	18c00017 	ldw	r3,0(r3)
 1204f30:	1800683a 	jmp	r3
 1204f34:	01204ff4 	movhi	r4,33087
 1204f38:	01205214 	movui	r4,33096
 1204f3c:	01205214 	movui	r4,33096
 1204f40:	01205214 	movui	r4,33096
 1204f44:	01205214 	movui	r4,33096
 1204f48:	01205214 	movui	r4,33096
 1204f4c:	01205214 	movui	r4,33096
 1204f50:	01205214 	movui	r4,33096
 1204f54:	01205214 	movui	r4,33096
 1204f58:	01205200 	call	120520 <__alt_mem_ext_flash_ctl-0x6dfae0>
 1204f5c:	01205200 	call	120520 <__alt_mem_ext_flash_ctl-0x6dfae0>
 1204f60:	01205200 	call	120520 <__alt_mem_ext_flash_ctl-0x6dfae0>
 1204f64:	01205200 	call	120520 <__alt_mem_ext_flash_ctl-0x6dfae0>
 1204f68:	01205200 	call	120520 <__alt_mem_ext_flash_ctl-0x6dfae0>
 1204f6c:	01205214 	movui	r4,33096
 1204f70:	01205214 	movui	r4,33096
 1204f74:	01205214 	movui	r4,33096
 1204f78:	01205214 	movui	r4,33096
 1204f7c:	01205214 	movui	r4,33096
 1204f80:	01205214 	movui	r4,33096
 1204f84:	01205214 	movui	r4,33096
 1204f88:	01205214 	movui	r4,33096
 1204f8c:	01205214 	movui	r4,33096
 1204f90:	01205214 	movui	r4,33096
 1204f94:	01205214 	movui	r4,33096
 1204f98:	01205214 	movui	r4,33096
 1204f9c:	01205214 	movui	r4,33096
 1204fa0:	01205214 	movui	r4,33096
 1204fa4:	01205214 	movui	r4,33096
 1204fa8:	01205214 	movui	r4,33096
 1204fac:	01205214 	movui	r4,33096
 1204fb0:	01205214 	movui	r4,33096
 1204fb4:	01205200 	call	120520 <__alt_mem_ext_flash_ctl-0x6dfae0>
 1204fb8:	01205214 	movui	r4,33096
 1204fbc:	01205214 	movui	r4,33096
 1204fc0:	01205214 	movui	r4,33096
 1204fc4:	01205214 	movui	r4,33096
 1204fc8:	01205214 	movui	r4,33096
 1204fcc:	01205214 	movui	r4,33096
 1204fd0:	01205214 	movui	r4,33096
 1204fd4:	01205214 	movui	r4,33096
 1204fd8:	01205214 	movui	r4,33096
 1204fdc:	01205214 	movui	r4,33096
 1204fe0:	01205054 	movui	r4,33089
 1204fe4:	01205214 	movui	r4,33096
 1204fe8:	012051f4 	movhi	r4,33095
 1204fec:	00801244 	movi	r2,73
 1204ff0:	98849c26 	beq	r19,r2,1206264 <_strtod_r+0x13a0>
 1204ff4:	002b883a 	mov	r21,zero
 1204ff8:	0023883a 	mov	r17,zero
 1204ffc:	d8800c17 	ldw	r2,48(sp)
 1205000:	10000626 	beq	r2,zero,120501c <_strtod_r+0x158>
 1205004:	d8001015 	stw	zero,64(sp)
 1205008:	d8800c17 	ldw	r2,48(sp)
 120500c:	15800015 	stw	r22,0(r2)
 1205010:	d8c01017 	ldw	r3,64(sp)
 1205014:	18000126 	beq	r3,zero,120501c <_strtod_r+0x158>
 1205018:	8c60003c 	xorhi	r17,r17,32768
 120501c:	a805883a 	mov	r2,r21
 1205020:	8807883a 	mov	r3,r17
 1205024:	dfc01e17 	ldw	ra,120(sp)
 1205028:	df001d17 	ldw	fp,116(sp)
 120502c:	ddc01c17 	ldw	r23,112(sp)
 1205030:	dd801b17 	ldw	r22,108(sp)
 1205034:	dd401a17 	ldw	r21,104(sp)
 1205038:	dd001917 	ldw	r20,100(sp)
 120503c:	dcc01817 	ldw	r19,96(sp)
 1205040:	dc801717 	ldw	r18,92(sp)
 1205044:	dc401617 	ldw	r17,88(sp)
 1205048:	dc001517 	ldw	r16,84(sp)
 120504c:	dec01f04 	addi	sp,sp,124
 1205050:	f800283a 	ret
 1205054:	d8001015 	stw	zero,64(sp)
 1205058:	24800044 	addi	r18,r4,1
 120505c:	dc800615 	stw	r18,24(sp)
 1205060:	20800043 	ldbu	r2,1(r4)
 1205064:	10c03fcc 	andi	r3,r2,255
 1205068:	18c0201c 	xori	r3,r3,128
 120506c:	18ffe004 	addi	r3,r3,-128
 1205070:	183fe026 	beq	r3,zero,1204ff4 <__alt_mem_instruction_tcm+0xff204ff4>
 1205074:	11403fcc 	andi	r5,r2,255
 1205078:	2940201c 	xori	r5,r5,128
 120507c:	297fe004 	addi	r5,r5,-128
 1205080:	00c00c04 	movi	r3,48
 1205084:	28c0f226 	beq	r5,r3,1205450 <_strtod_r+0x58c>
 1205088:	0023883a 	mov	r17,zero
 120508c:	10fff404 	addi	r3,r2,-48
 1205090:	18c03fcc 	andi	r3,r3,255
 1205094:	01800244 	movi	r6,9
 1205098:	30c3d336 	bltu	r6,r3,1205fe8 <_strtod_r+0x1124>
 120509c:	91000044 	addi	r4,r18,1
 12050a0:	002b883a 	mov	r21,zero
 12050a4:	002f883a 	mov	r23,zero
 12050a8:	0029883a 	mov	r20,zero
 12050ac:	02000204 	movi	r8,8
 12050b0:	024003c4 	movi	r9,15
 12050b4:	45005a16 	blt	r8,r20,1205220 <_strtod_r+0x35c>
 12050b8:	bdc002a4 	muli	r23,r23,10
 12050bc:	10803fcc 	andi	r2,r2,255
 12050c0:	1080201c 	xori	r2,r2,128
 12050c4:	10bfe004 	addi	r2,r2,-128
 12050c8:	b885883a 	add	r2,r23,r2
 12050cc:	15fff404 	addi	r23,r2,-48
 12050d0:	d9000615 	stw	r4,24(sp)
 12050d4:	20800003 	ldbu	r2,0(r4)
 12050d8:	2039883a 	mov	fp,r4
 12050dc:	a5000044 	addi	r20,r20,1
 12050e0:	10fff404 	addi	r3,r2,-48
 12050e4:	18c03fcc 	andi	r3,r3,255
 12050e8:	21000044 	addi	r4,r4,1
 12050ec:	30fff12e 	bgeu	r6,r3,12050b4 <__alt_mem_instruction_tcm+0xff2050b4>
 12050f0:	14c03fcc 	andi	r19,r2,255
 12050f4:	9cc0201c 	xori	r19,r19,128
 12050f8:	9cffe004 	addi	r19,r19,-128
 12050fc:	8009883a 	mov	r4,r16
 1205100:	12040440 	call	1204044 <_localeconv_r>
 1205104:	11400017 	ldw	r5,0(r2)
 1205108:	8009883a 	mov	r4,r16
 120510c:	d9401315 	stw	r5,76(sp)
 1205110:	12040440 	call	1204044 <_localeconv_r>
 1205114:	11000017 	ldw	r4,0(r2)
 1205118:	1201a940 	call	1201a94 <strlen>
 120511c:	d9401317 	ldw	r5,76(sp)
 1205120:	e009883a 	mov	r4,fp
 1205124:	100d883a 	mov	r6,r2
 1205128:	120dc880 	call	120dc88 <strncmp>
 120512c:	1000d926 	beq	r2,zero,1205494 <_strtod_r+0x5d0>
 1205130:	a039883a 	mov	fp,r20
 1205134:	000b883a 	mov	r5,zero
 1205138:	0011883a 	mov	r8,zero
 120513c:	0013883a 	mov	r9,zero
 1205140:	00801944 	movi	r2,101
 1205144:	98804426 	beq	r19,r2,1205258 <_strtod_r+0x394>
 1205148:	00801144 	movi	r2,69
 120514c:	98804226 	beq	r19,r2,1205258 <_strtod_r+0x394>
 1205150:	000f883a 	mov	r7,zero
